                              1 ;--------------------------------------------------------
                              2 ; File Created by SDCC : FreeWare ANSI-C Compiler
                              3 ; Version 2.3.1 Sat Aug 31 01:31:10 2019
                              4 
                              5 ;--------------------------------------------------------
                              6 	.module lcc110160
                              7 	
                              8 ;--------------------------------------------------------
                              9 ; Public variables in this module
                             10 ;--------------------------------------------------------
                             11 	.globl _main
                             12 	.globl _logo_bkg
                             13 	.globl _move_cursor
                             14 	.globl _init_cursor
                             15 	.globl _init_bkg
                             16 	.globl _init_key
                             17 	.globl _break_button
                             18 	.globl _press_button
                             19 	.globl _disp
                             20 	.globl _clr_disp
                             21 	.globl _disp_lcd
                             22 	.globl _dialtone
                             23 	.globl _check_win
                             24 	.globl _init_dial
                             25 	.globl _disp_tile
                             26 	.globl _pad
                             27 	.globl _init_disp
                             28 	.globl _dialing_press
                             29 	.globl _press_tile
                             30 	.globl _dialing_break
                             31 	.globl _break_tile
                             32 	.globl _dtmf_tile
                             33 	.globl _col
                             34 	.globl _row
                             35 	.globl _cursor_data
                             36 	.globl _key_num
                             37 	.globl _dtmf_lcd
                             38 	.globl _press_btn
                             39 	.globl _break_btn
                             40 	.globl _frame_lcd
                             41 ;--------------------------------------------------------
                             42 ; special function registers
                             43 ;--------------------------------------------------------
                             44 ;--------------------------------------------------------
                             45 ; special function bits 
                             46 ;--------------------------------------------------------
                             47 ;--------------------------------------------------------
                             48 ; internal ram data
                             49 ;--------------------------------------------------------
                             50 	.area _DATA
   0000                      51 _disp_tile::
   0000                      52 	.ds 30
                             53 ;--------------------------------------------------------
                             54 ; overlayable items in internal ram 
                             55 ;--------------------------------------------------------
                             56 	.area _OVERLAY
                             57 ;--------------------------------------------------------
                             58 ; indirectly addressable internal ram data
                             59 ;--------------------------------------------------------
                             60 	.area _ISEG
                             61 ;--------------------------------------------------------
                             62 ; bit data
                             63 ;--------------------------------------------------------
                             64 	.area _BSEG
                             65 ;--------------------------------------------------------
                             66 ; external ram data
                             67 ;--------------------------------------------------------
                             68 	.area _XSEG
                             69 ;--------------------------------------------------------
                             70 ; global & static initialisations
                             71 ;--------------------------------------------------------
                             72 	.area _GSINIT
                             73 	.area _GSFINAL
                             74 	.area _GSINIT
                             75 ;--------------------------------------------------------
                             76 ; Home
                             77 ;--------------------------------------------------------
                             78 	.area _HOME
                             79 	.area _CODE
                             80 ;--------------------------------------------------------
                             81 ; code
                             82 ;--------------------------------------------------------
                             83 	.area _CODE
                             84 ;	r2tune.c 137
                             85 ;	genLabel
                             86 ;	genFunction
                             87 ;	---------------------------------
                             88 ; Function init_dial
                             89 ; ---------------------------------
   0000                      90 ___init_dial_start:
   0000                      91 _init_dial:
                             92 	
                             93 ;	r2tune.c 140
                             94 ;	genAssign
   0000 01 26 FF             95 	ld	bc,#0xFF26
                             96 ;	genAssign (pointer)
   0003 3E 83                97 	ld	a,#0x83
   0005 02                   98 	ld	(bc),a
                             99 ;	r2tune.c 141
                            100 ;	genAssign
   0006 01 25 FF            101 	ld	bc,#0xFF25
                            102 ;	genAssign (pointer)
   0009 3E 00               103 	ld	a,#0x00
   000B 02                  104 	ld	(bc),a
                            105 ;	r2tune.c 142
                            106 ;	genAssign
   000C 01 24 FF            107 	ld	bc,#0xFF24
                            108 ;	genAssign (pointer)
   000F 3E 77               109 	ld	a,#0x77
   0011 02                  110 	ld	(bc),a
                            111 ;	r2tune.c 144
                            112 ;	genAssign
   0012 01 19 FF            113 	ld	bc,#0xFF19
                            114 ;	genAssign (pointer)
   0015 3E 87               115 	ld	a,#0x87
   0017 02                  116 	ld	(bc),a
                            117 ;	r2tune.c 145
                            118 ;	genAssign
   0018 01 17 FF            119 	ld	bc,#0xFF17
                            120 ;	genAssign (pointer)
   001B 3E FF               121 	ld	a,#0xFF
   001D 02                  122 	ld	(bc),a
                            123 ;	r2tune.c 146
                            124 ;	genAssign
   001E 01 16 FF            125 	ld	bc,#0xFF16
                            126 ;	genAssign (pointer)
   0021 3E BF               127 	ld	a,#0xBF
   0023 02                  128 	ld	(bc),a
                            129 ;	r2tune.c 148
                            130 ;	genAssign
   0024 01 14 FF            131 	ld	bc,#0xFF14
                            132 ;	genAssign (pointer)
   0027 3E 87               133 	ld	a,#0x87
   0029 02                  134 	ld	(bc),a
                            135 ;	r2tune.c 149
                            136 ;	genAssign
   002A 01 12 FF            137 	ld	bc,#0xFF12
                            138 ;	genAssign (pointer)
   002D 3E FF               139 	ld	a,#0xFF
   002F 02                  140 	ld	(bc),a
                            141 ;	r2tune.c 150
                            142 ;	genAssign
   0030 01 11 FF            143 	ld	bc,#0xFF11
                            144 ;	genAssign (pointer)
   0033 3E BF               145 	ld	a,#0xBF
   0035 02                  146 	ld	(bc),a
                            147 ;	r2tune.c 151
                            148 ;	genAssign
   0036 01 10 FF            149 	ld	bc,#0xFF10
                            150 ;	genAssign (pointer)
   0039 3E 04               151 	ld	a,#0x04
   003B 02                  152 	ld	(bc),a
                            153 ;	genLabel
   003C                     154 00101$:
                            155 ;	genEndFunction
                            156 	
   003C C9                  157 	ret
   003D                     158 ___init_dial_end:
   003D                     159 _frame_lcd:
   003D 00                  160 	.db #0x00
   003E 00                  161 	.db #0x00
   003F 00                  162 	.db #0x00
   0040 00                  163 	.db #0x00
   0041 00                  164 	.db #0x00
   0042 00                  165 	.db #0x00
   0043 00                  166 	.db #0x00
   0044 1F                  167 	.db #0x1F
   0045 00                  168 	.db #0x00
   0046 1F                  169 	.db #0x1F
   0047 00                  170 	.db #0x00
   0048 18                  171 	.db #0x18
   0049 00                  172 	.db #0x00
   004A 18                  173 	.db #0x18
   004B 00                  174 	.db #0x00
   004C 18                  175 	.db #0x18
   004D 00                  176 	.db #0x00
   004E 00                  177 	.db #0x00
   004F 00                  178 	.db #0x00
   0050 00                  179 	.db #0x00
   0051 00                  180 	.db #0x00
   0052 00                  181 	.db #0x00
   0053 00                  182 	.db #0x00
   0054 FF                  183 	.db #0xFF
   0055 00                  184 	.db #0x00
   0056 FF                  185 	.db #0xFF
   0057 00                  186 	.db #0x00
   0058 00                  187 	.db #0x00
   0059 00                  188 	.db #0x00
   005A 00                  189 	.db #0x00
   005B 00                  190 	.db #0x00
   005C 00                  191 	.db #0x00
   005D 00                  192 	.db #0x00
   005E 00                  193 	.db #0x00
   005F 00                  194 	.db #0x00
   0060 00                  195 	.db #0x00
   0061 00                  196 	.db #0x00
   0062 00                  197 	.db #0x00
   0063 00                  198 	.db #0x00
   0064 F8                  199 	.db #0xF8
   0065 00                  200 	.db #0x00
   0066 F8                  201 	.db #0xF8
   0067 00                  202 	.db #0x00
   0068 18                  203 	.db #0x18
   0069 00                  204 	.db #0x00
   006A 18                  205 	.db #0x18
   006B 00                  206 	.db #0x00
   006C 18                  207 	.db #0x18
   006D 00                  208 	.db #0x00
   006E 18                  209 	.db #0x18
   006F 00                  210 	.db #0x00
   0070 18                  211 	.db #0x18
   0071 00                  212 	.db #0x00
   0072 18                  213 	.db #0x18
   0073 00                  214 	.db #0x00
   0074 18                  215 	.db #0x18
   0075 00                  216 	.db #0x00
   0076 18                  217 	.db #0x18
   0077 00                  218 	.db #0x00
   0078 18                  219 	.db #0x18
   0079 00                  220 	.db #0x00
   007A 18                  221 	.db #0x18
   007B 00                  222 	.db #0x00
   007C 18                  223 	.db #0x18
   007D 00                  224 	.db #0x00
   007E 00                  225 	.db #0x00
   007F 00                  226 	.db #0x00
   0080 00                  227 	.db #0x00
   0081 00                  228 	.db #0x00
   0082 00                  229 	.db #0x00
   0083 00                  230 	.db #0x00
   0084 00                  231 	.db #0x00
   0085 00                  232 	.db #0x00
   0086 00                  233 	.db #0x00
   0087 00                  234 	.db #0x00
   0088 00                  235 	.db #0x00
   0089 00                  236 	.db #0x00
   008A 00                  237 	.db #0x00
   008B 00                  238 	.db #0x00
   008C 00                  239 	.db #0x00
   008D 00                  240 	.db #0x00
   008E 18                  241 	.db #0x18
   008F 00                  242 	.db #0x00
   0090 18                  243 	.db #0x18
   0091 00                  244 	.db #0x00
   0092 18                  245 	.db #0x18
   0093 00                  246 	.db #0x00
   0094 18                  247 	.db #0x18
   0095 00                  248 	.db #0x00
   0096 18                  249 	.db #0x18
   0097 00                  250 	.db #0x00
   0098 18                  251 	.db #0x18
   0099 00                  252 	.db #0x00
   009A 18                  253 	.db #0x18
   009B 00                  254 	.db #0x00
   009C 18                  255 	.db #0x18
   009D 00                  256 	.db #0x00
   009E 18                  257 	.db #0x18
   009F 00                  258 	.db #0x00
   00A0 18                  259 	.db #0x18
   00A1 00                  260 	.db #0x00
   00A2 18                  261 	.db #0x18
   00A3 00                  262 	.db #0x00
   00A4 1F                  263 	.db #0x1F
   00A5 00                  264 	.db #0x00
   00A6 1F                  265 	.db #0x1F
   00A7 00                  266 	.db #0x00
   00A8 00                  267 	.db #0x00
   00A9 00                  268 	.db #0x00
   00AA 00                  269 	.db #0x00
   00AB 00                  270 	.db #0x00
   00AC 00                  271 	.db #0x00
   00AD 00                  272 	.db #0x00
   00AE 00                  273 	.db #0x00
   00AF 00                  274 	.db #0x00
   00B0 00                  275 	.db #0x00
   00B1 00                  276 	.db #0x00
   00B2 00                  277 	.db #0x00
   00B3 00                  278 	.db #0x00
   00B4 FF                  279 	.db #0xFF
   00B5 00                  280 	.db #0x00
   00B6 FF                  281 	.db #0xFF
   00B7 00                  282 	.db #0x00
   00B8 00                  283 	.db #0x00
   00B9 00                  284 	.db #0x00
   00BA 00                  285 	.db #0x00
   00BB 00                  286 	.db #0x00
   00BC 00                  287 	.db #0x00
   00BD 00                  288 	.db #0x00
   00BE 18                  289 	.db #0x18
   00BF 00                  290 	.db #0x00
   00C0 18                  291 	.db #0x18
   00C1 00                  292 	.db #0x00
   00C2 18                  293 	.db #0x18
   00C3 00                  294 	.db #0x00
   00C4 F8                  295 	.db #0xF8
   00C5 00                  296 	.db #0x00
   00C6 F8                  297 	.db #0xF8
   00C7 00                  298 	.db #0x00
   00C8 00                  299 	.db #0x00
   00C9 00                  300 	.db #0x00
   00CA 00                  301 	.db #0x00
   00CB 00                  302 	.db #0x00
   00CC 00                  303 	.db #0x00
   00CD                     304 _break_btn:
   00CD 00                  305 	.db #0x00
   00CE 00                  306 	.db #0x00
   00CF 00                  307 	.db #0x00
   00D0 00                  308 	.db #0x00
   00D1 3F                  309 	.db #0x3F
   00D2 00                  310 	.db #0x00
   00D3 3F                  311 	.db #0x3F
   00D4 00                  312 	.db #0x00
   00D5 3F                  313 	.db #0x3F
   00D6 00                  314 	.db #0x00
   00D7 3F                  315 	.db #0x3F
   00D8 00                  316 	.db #0x00
   00D9 3F                  317 	.db #0x3F
   00DA 00                  318 	.db #0x00
   00DB 3F                  319 	.db #0x3F
   00DC 00                  320 	.db #0x00
   00DD 00                  321 	.db #0x00
   00DE 00                  322 	.db #0x00
   00DF 00                  323 	.db #0x00
   00E0 00                  324 	.db #0x00
   00E1 FF                  325 	.db #0xFF
   00E2 00                  326 	.db #0x00
   00E3 FF                  327 	.db #0xFF
   00E4 00                  328 	.db #0x00
   00E5 FF                  329 	.db #0xFF
   00E6 00                  330 	.db #0x00
   00E7 FF                  331 	.db #0xFF
   00E8 00                  332 	.db #0x00
   00E9 FF                  333 	.db #0xFF
   00EA 00                  334 	.db #0x00
   00EB FF                  335 	.db #0xFF
   00EC 00                  336 	.db #0x00
   00ED 00                  337 	.db #0x00
   00EE 01                  338 	.db #0x01
   00EF 00                  339 	.db #0x00
   00F0 03                  340 	.db #0x03
   00F1 FC                  341 	.db #0xFC
   00F2 03                  342 	.db #0x03
   00F3 FC                  343 	.db #0xFC
   00F4 03                  344 	.db #0x03
   00F5 FC                  345 	.db #0xFC
   00F6 03                  346 	.db #0x03
   00F7 FC                  347 	.db #0xFC
   00F8 03                  348 	.db #0x03
   00F9 FC                  349 	.db #0xFC
   00FA 03                  350 	.db #0x03
   00FB FC                  351 	.db #0xFC
   00FC 03                  352 	.db #0x03
   00FD 3F                  353 	.db #0x3F
   00FE 00                  354 	.db #0x00
   00FF 3F                  355 	.db #0x3F
   0100 00                  356 	.db #0x00
   0101 3F                  357 	.db #0x3F
   0102 00                  358 	.db #0x00
   0103 3F                  359 	.db #0x3F
   0104 00                  360 	.db #0x00
   0105 3F                  361 	.db #0x3F
   0106 00                  362 	.db #0x00
   0107 3F                  363 	.db #0x3F
   0108 00                  364 	.db #0x00
   0109 3F                  365 	.db #0x3F
   010A 00                  366 	.db #0x00
   010B 3F                  367 	.db #0x3F
   010C 00                  368 	.db #0x00
   010D FF                  369 	.db #0xFF
   010E 00                  370 	.db #0x00
   010F FF                  371 	.db #0xFF
   0110 00                  372 	.db #0x00
   0111 FF                  373 	.db #0xFF
   0112 00                  374 	.db #0x00
   0113 FF                  375 	.db #0xFF
   0114 00                  376 	.db #0x00
   0115 FF                  377 	.db #0xFF
   0116 00                  378 	.db #0x00
   0117 FF                  379 	.db #0xFF
   0118 00                  380 	.db #0x00
   0119 FF                  381 	.db #0xFF
   011A 00                  382 	.db #0x00
   011B FF                  383 	.db #0xFF
   011C 00                  384 	.db #0x00
   011D FC                  385 	.db #0xFC
   011E 03                  386 	.db #0x03
   011F FC                  387 	.db #0xFC
   0120 03                  388 	.db #0x03
   0121 FC                  389 	.db #0xFC
   0122 03                  390 	.db #0x03
   0123 FC                  391 	.db #0xFC
   0124 03                  392 	.db #0x03
   0125 FC                  393 	.db #0xFC
   0126 03                  394 	.db #0x03
   0127 FC                  395 	.db #0xFC
   0128 03                  396 	.db #0x03
   0129 FC                  397 	.db #0xFC
   012A 03                  398 	.db #0x03
   012B FC                  399 	.db #0xFC
   012C 03                  400 	.db #0x03
   012D 3F                  401 	.db #0x3F
   012E 00                  402 	.db #0x00
   012F 3F                  403 	.db #0x3F
   0130 00                  404 	.db #0x00
   0131 3F                  405 	.db #0x3F
   0132 00                  406 	.db #0x00
   0133 3F                  407 	.db #0x3F
   0134 00                  408 	.db #0x00
   0135 3F                  409 	.db #0x3F
   0136 00                  410 	.db #0x00
   0137 3F                  411 	.db #0x3F
   0138 00                  412 	.db #0x00
   0139 00                  413 	.db #0x00
   013A 3F                  414 	.db #0x3F
   013B 00                  415 	.db #0x00
   013C 7F                  416 	.db #0x7F
   013D FF                  417 	.db #0xFF
   013E 00                  418 	.db #0x00
   013F FF                  419 	.db #0xFF
   0140 00                  420 	.db #0x00
   0141 FF                  421 	.db #0xFF
   0142 00                  422 	.db #0x00
   0143 FF                  423 	.db #0xFF
   0144 00                  424 	.db #0x00
   0145 FF                  425 	.db #0xFF
   0146 00                  426 	.db #0x00
   0147 FF                  427 	.db #0xFF
   0148 00                  428 	.db #0x00
   0149 00                  429 	.db #0x00
   014A FF                  430 	.db #0xFF
   014B 00                  431 	.db #0x00
   014C FF                  432 	.db #0xFF
   014D FC                  433 	.db #0xFC
   014E 03                  434 	.db #0x03
   014F FC                  435 	.db #0xFC
   0150 03                  436 	.db #0x03
   0151 FC                  437 	.db #0xFC
   0152 03                  438 	.db #0x03
   0153 FC                  439 	.db #0xFC
   0154 03                  440 	.db #0x03
   0155 FC                  441 	.db #0xFC
   0156 03                  442 	.db #0x03
   0157 FC                  443 	.db #0xFC
   0158 03                  444 	.db #0x03
   0159 00                  445 	.db #0x00
   015A FF                  446 	.db #0xFF
   015B 00                  447 	.db #0x00
   015C FF                  448 	.db #0xFF
   015D                     449 _press_btn:
   015D 00                  450 	.db #0x00
   015E FF                  451 	.db #0xFF
   015F 00                  452 	.db #0x00
   0160 FF                  453 	.db #0xFF
   0161 3F                  454 	.db #0x3F
   0162 C0                  455 	.db #0xC0
   0163 3F                  456 	.db #0x3F
   0164 C0                  457 	.db #0xC0
   0165 3F                  458 	.db #0x3F
   0166 C0                  459 	.db #0xC0
   0167 3F                  460 	.db #0x3F
   0168 C0                  461 	.db #0xC0
   0169 3F                  462 	.db #0x3F
   016A C0                  463 	.db #0xC0
   016B 3F                  464 	.db #0x3F
   016C C0                  465 	.db #0xC0
   016D 00                  466 	.db #0x00
   016E FF                  467 	.db #0xFF
   016F 00                  468 	.db #0x00
   0170 FF                  469 	.db #0xFF
   0171 FF                  470 	.db #0xFF
   0172 00                  471 	.db #0x00
   0173 FF                  472 	.db #0xFF
   0174 00                  473 	.db #0x00
   0175 FF                  474 	.db #0xFF
   0176 00                  475 	.db #0x00
   0177 FF                  476 	.db #0xFF
   0178 00                  477 	.db #0x00
   0179 FF                  478 	.db #0xFF
   017A 00                  479 	.db #0x00
   017B FF                  480 	.db #0xFF
   017C 00                  481 	.db #0x00
   017D 00                  482 	.db #0x00
   017E FE                  483 	.db #0xFE
   017F 00                  484 	.db #0x00
   0180 FC                  485 	.db #0xFC
   0181 FC                  486 	.db #0xFC
   0182 00                  487 	.db #0x00
   0183 FC                  488 	.db #0xFC
   0184 00                  489 	.db #0x00
   0185 FC                  490 	.db #0xFC
   0186 00                  491 	.db #0x00
   0187 FC                  492 	.db #0xFC
   0188 00                  493 	.db #0x00
   0189 FC                  494 	.db #0xFC
   018A 00                  495 	.db #0x00
   018B FC                  496 	.db #0xFC
   018C 00                  497 	.db #0x00
   018D 3F                  498 	.db #0x3F
   018E C0                  499 	.db #0xC0
   018F 3F                  500 	.db #0x3F
   0190 C0                  501 	.db #0xC0
   0191 3F                  502 	.db #0x3F
   0192 C0                  503 	.db #0xC0
   0193 3F                  504 	.db #0x3F
   0194 C0                  505 	.db #0xC0
   0195 3F                  506 	.db #0x3F
   0196 C0                  507 	.db #0xC0
   0197 3F                  508 	.db #0x3F
   0198 C0                  509 	.db #0xC0
   0199 3F                  510 	.db #0x3F
   019A C0                  511 	.db #0xC0
   019B 3F                  512 	.db #0x3F
   019C C0                  513 	.db #0xC0
   019D FF                  514 	.db #0xFF
   019E 00                  515 	.db #0x00
   019F FF                  516 	.db #0xFF
   01A0 00                  517 	.db #0x00
   01A1 FF                  518 	.db #0xFF
   01A2 00                  519 	.db #0x00
   01A3 FF                  520 	.db #0xFF
   01A4 00                  521 	.db #0x00
   01A5 FF                  522 	.db #0xFF
   01A6 00                  523 	.db #0x00
   01A7 FF                  524 	.db #0xFF
   01A8 00                  525 	.db #0x00
   01A9 FF                  526 	.db #0xFF
   01AA 00                  527 	.db #0x00
   01AB FF                  528 	.db #0xFF
   01AC 00                  529 	.db #0x00
   01AD FC                  530 	.db #0xFC
   01AE 00                  531 	.db #0x00
   01AF FC                  532 	.db #0xFC
   01B0 00                  533 	.db #0x00
   01B1 FC                  534 	.db #0xFC
   01B2 00                  535 	.db #0x00
   01B3 FC                  536 	.db #0xFC
   01B4 00                  537 	.db #0x00
   01B5 FC                  538 	.db #0xFC
   01B6 00                  539 	.db #0x00
   01B7 FC                  540 	.db #0xFC
   01B8 00                  541 	.db #0x00
   01B9 FC                  542 	.db #0xFC
   01BA 00                  543 	.db #0x00
   01BB FC                  544 	.db #0xFC
   01BC 00                  545 	.db #0x00
   01BD 3F                  546 	.db #0x3F
   01BE C0                  547 	.db #0xC0
   01BF 3F                  548 	.db #0x3F
   01C0 C0                  549 	.db #0xC0
   01C1 3F                  550 	.db #0x3F
   01C2 C0                  551 	.db #0xC0
   01C3 3F                  552 	.db #0x3F
   01C4 C0                  553 	.db #0xC0
   01C5 3F                  554 	.db #0x3F
   01C6 C0                  555 	.db #0xC0
   01C7 3F                  556 	.db #0x3F
   01C8 C0                  557 	.db #0xC0
   01C9 00                  558 	.db #0x00
   01CA C0                  559 	.db #0xC0
   01CB 00                  560 	.db #0x00
   01CC 80                  561 	.db #0x80
   01CD FF                  562 	.db #0xFF
   01CE 00                  563 	.db #0x00
   01CF FF                  564 	.db #0xFF
   01D0 00                  565 	.db #0x00
   01D1 FF                  566 	.db #0xFF
   01D2 00                  567 	.db #0x00
   01D3 FF                  568 	.db #0xFF
   01D4 00                  569 	.db #0x00
   01D5 FF                  570 	.db #0xFF
   01D6 00                  571 	.db #0x00
   01D7 FF                  572 	.db #0xFF
   01D8 00                  573 	.db #0x00
   01D9 00                  574 	.db #0x00
   01DA 00                  575 	.db #0x00
   01DB 00                  576 	.db #0x00
   01DC 00                  577 	.db #0x00
   01DD FC                  578 	.db #0xFC
   01DE 00                  579 	.db #0x00
   01DF FC                  580 	.db #0xFC
   01E0 00                  581 	.db #0x00
   01E1 FC                  582 	.db #0xFC
   01E2 00                  583 	.db #0x00
   01E3 FC                  584 	.db #0xFC
   01E4 00                  585 	.db #0x00
   01E5 FC                  586 	.db #0xFC
   01E6 00                  587 	.db #0x00
   01E7 FC                  588 	.db #0xFC
   01E8 00                  589 	.db #0x00
   01E9 00                  590 	.db #0x00
   01EA 00                  591 	.db #0x00
   01EB 00                  592 	.db #0x00
   01EC 00                  593 	.db #0x00
   01ED                     594 _dtmf_lcd:
   01ED 3E                  595 	.db #0x3E
   01EE 3E                  596 	.db #0x3E
   01EF 7F                  597 	.db #0x7F
   01F0 7F                  598 	.db #0x7F
   01F1 63                  599 	.db #0x63
   01F2 63                  600 	.db #0x63
   01F3 63                  601 	.db #0x63
   01F4 63                  602 	.db #0x63
   01F5 63                  603 	.db #0x63
   01F6 63                  604 	.db #0x63
   01F7 63                  605 	.db #0x63
   01F8 63                  606 	.db #0x63
   01F9 63                  607 	.db #0x63
   01FA 63                  608 	.db #0x63
   01FB 00                  609 	.db #0x00
   01FC 00                  610 	.db #0x00
   01FD 00                  611 	.db #0x00
   01FE 00                  612 	.db #0x00
   01FF 63                  613 	.db #0x63
   0200 63                  614 	.db #0x63
   0201 63                  615 	.db #0x63
   0202 63                  616 	.db #0x63
   0203 63                  617 	.db #0x63
   0204 63                  618 	.db #0x63
   0205 63                  619 	.db #0x63
   0206 63                  620 	.db #0x63
   0207 63                  621 	.db #0x63
   0208 63                  622 	.db #0x63
   0209 7F                  623 	.db #0x7F
   020A 7F                  624 	.db #0x7F
   020B 3E                  625 	.db #0x3E
   020C 3E                  626 	.db #0x3E
   020D 3E                  627 	.db #0x3E
   020E 02                  628 	.db #0x02
   020F 7F                  629 	.db #0x7F
   0210 03                  630 	.db #0x03
   0211 63                  631 	.db #0x63
   0212 03                  632 	.db #0x03
   0213 63                  633 	.db #0x63
   0214 03                  634 	.db #0x03
   0215 63                  635 	.db #0x63
   0216 03                  636 	.db #0x03
   0217 63                  637 	.db #0x63
   0218 03                  638 	.db #0x03
   0219 63                  639 	.db #0x63
   021A 03                  640 	.db #0x03
   021B 3C                  641 	.db #0x3C
   021C 00                  642 	.db #0x00
   021D 3C                  643 	.db #0x3C
   021E 00                  644 	.db #0x00
   021F 63                  645 	.db #0x63
   0220 03                  646 	.db #0x03
   0221 63                  647 	.db #0x63
   0222 03                  648 	.db #0x03
   0223 63                  649 	.db #0x63
   0224 03                  650 	.db #0x03
   0225 63                  651 	.db #0x63
   0226 03                  652 	.db #0x03
   0227 63                  653 	.db #0x63
   0228 03                  654 	.db #0x03
   0229 7F                  655 	.db #0x7F
   022A 03                  656 	.db #0x03
   022B 3E                  657 	.db #0x3E
   022C 02                  658 	.db #0x02
   022D 3E                  659 	.db #0x3E
   022E 3E                  660 	.db #0x3E
   022F 7F                  661 	.db #0x7F
   0230 7F                  662 	.db #0x7F
   0231 63                  663 	.db #0x63
   0232 03                  664 	.db #0x03
   0233 63                  665 	.db #0x63
   0234 03                  666 	.db #0x03
   0235 63                  667 	.db #0x63
   0236 03                  668 	.db #0x03
   0237 63                  669 	.db #0x63
   0238 03                  670 	.db #0x03
   0239 63                  671 	.db #0x63
   023A 03                  672 	.db #0x03
   023B 3E                  673 	.db #0x3E
   023C 3E                  674 	.db #0x3E
   023D 3E                  675 	.db #0x3E
   023E 3E                  676 	.db #0x3E
   023F 63                  677 	.db #0x63
   0240 60                  678 	.db #0x60
   0241 63                  679 	.db #0x63
   0242 60                  680 	.db #0x60
   0243 63                  681 	.db #0x63
   0244 60                  682 	.db #0x60
   0245 63                  683 	.db #0x63
   0246 60                  684 	.db #0x60
   0247 63                  685 	.db #0x63
   0248 60                  686 	.db #0x60
   0249 7F                  687 	.db #0x7F
   024A 7F                  688 	.db #0x7F
   024B 3E                  689 	.db #0x3E
   024C 3E                  690 	.db #0x3E
   024D 3E                  691 	.db #0x3E
   024E 3E                  692 	.db #0x3E
   024F 7F                  693 	.db #0x7F
   0250 7F                  694 	.db #0x7F
   0251 63                  695 	.db #0x63
   0252 03                  696 	.db #0x03
   0253 63                  697 	.db #0x63
   0254 03                  698 	.db #0x03
   0255 63                  699 	.db #0x63
   0256 03                  700 	.db #0x03
   0257 63                  701 	.db #0x63
   0258 03                  702 	.db #0x03
   0259 63                  703 	.db #0x63
   025A 03                  704 	.db #0x03
   025B 3E                  705 	.db #0x3E
   025C 3E                  706 	.db #0x3E
   025D 3E                  707 	.db #0x3E
   025E 3E                  708 	.db #0x3E
   025F 63                  709 	.db #0x63
   0260 03                  710 	.db #0x03
   0261 63                  711 	.db #0x63
   0262 03                  712 	.db #0x03
   0263 63                  713 	.db #0x63
   0264 03                  714 	.db #0x03
   0265 63                  715 	.db #0x63
   0266 03                  716 	.db #0x03
   0267 63                  717 	.db #0x63
   0268 03                  718 	.db #0x03
   0269 7F                  719 	.db #0x7F
   026A 7F                  720 	.db #0x7F
   026B 3E                  721 	.db #0x3E
   026C 3E                  722 	.db #0x3E
   026D 3E                  723 	.db #0x3E
   026E 22                  724 	.db #0x22
   026F 7F                  725 	.db #0x7F
   0270 63                  726 	.db #0x63
   0271 63                  727 	.db #0x63
   0272 63                  728 	.db #0x63
   0273 63                  729 	.db #0x63
   0274 63                  730 	.db #0x63
   0275 63                  731 	.db #0x63
   0276 63                  732 	.db #0x63
   0277 63                  733 	.db #0x63
   0278 63                  734 	.db #0x63
   0279 63                  735 	.db #0x63
   027A 63                  736 	.db #0x63
   027B 3E                  737 	.db #0x3E
   027C 3E                  738 	.db #0x3E
   027D 3E                  739 	.db #0x3E
   027E 3E                  740 	.db #0x3E
   027F 63                  741 	.db #0x63
   0280 03                  742 	.db #0x03
   0281 63                  743 	.db #0x63
   0282 03                  744 	.db #0x03
   0283 63                  745 	.db #0x63
   0284 03                  746 	.db #0x03
   0285 63                  747 	.db #0x63
   0286 03                  748 	.db #0x03
   0287 63                  749 	.db #0x63
   0288 03                  750 	.db #0x03
   0289 7F                  751 	.db #0x7F
   028A 03                  752 	.db #0x03
   028B 3E                  753 	.db #0x3E
   028C 02                  754 	.db #0x02
   028D 3E                  755 	.db #0x3E
   028E 3E                  756 	.db #0x3E
   028F 7F                  757 	.db #0x7F
   0290 7F                  758 	.db #0x7F
   0291 63                  759 	.db #0x63
   0292 60                  760 	.db #0x60
   0293 63                  761 	.db #0x63
   0294 60                  762 	.db #0x60
   0295 63                  763 	.db #0x63
   0296 60                  764 	.db #0x60
   0297 63                  765 	.db #0x63
   0298 60                  766 	.db #0x60
   0299 63                  767 	.db #0x63
   029A 60                  768 	.db #0x60
   029B 3E                  769 	.db #0x3E
   029C 3E                  770 	.db #0x3E
   029D 3E                  771 	.db #0x3E
   029E 3E                  772 	.db #0x3E
   029F 63                  773 	.db #0x63
   02A0 03                  774 	.db #0x03
   02A1 63                  775 	.db #0x63
   02A2 03                  776 	.db #0x03
   02A3 63                  777 	.db #0x63
   02A4 03                  778 	.db #0x03
   02A5 63                  779 	.db #0x63
   02A6 03                  780 	.db #0x03
   02A7 63                  781 	.db #0x63
   02A8 03                  782 	.db #0x03
   02A9 7F                  783 	.db #0x7F
   02AA 7F                  784 	.db #0x7F
   02AB 3E                  785 	.db #0x3E
   02AC 3E                  786 	.db #0x3E
   02AD 3E                  787 	.db #0x3E
   02AE 3E                  788 	.db #0x3E
   02AF 7F                  789 	.db #0x7F
   02B0 7F                  790 	.db #0x7F
   02B1 63                  791 	.db #0x63
   02B2 60                  792 	.db #0x60
   02B3 63                  793 	.db #0x63
   02B4 60                  794 	.db #0x60
   02B5 63                  795 	.db #0x63
   02B6 60                  796 	.db #0x60
   02B7 63                  797 	.db #0x63
   02B8 60                  798 	.db #0x60
   02B9 63                  799 	.db #0x63
   02BA 60                  800 	.db #0x60
   02BB 3E                  801 	.db #0x3E
   02BC 3E                  802 	.db #0x3E
   02BD 3E                  803 	.db #0x3E
   02BE 3E                  804 	.db #0x3E
   02BF 63                  805 	.db #0x63
   02C0 63                  806 	.db #0x63
   02C1 63                  807 	.db #0x63
   02C2 63                  808 	.db #0x63
   02C3 63                  809 	.db #0x63
   02C4 63                  810 	.db #0x63
   02C5 63                  811 	.db #0x63
   02C6 63                  812 	.db #0x63
   02C7 63                  813 	.db #0x63
   02C8 63                  814 	.db #0x63
   02C9 7F                  815 	.db #0x7F
   02CA 7F                  816 	.db #0x7F
   02CB 3E                  817 	.db #0x3E
   02CC 3E                  818 	.db #0x3E
   02CD 3E                  819 	.db #0x3E
   02CE 3E                  820 	.db #0x3E
   02CF 7F                  821 	.db #0x7F
   02D0 7F                  822 	.db #0x7F
   02D1 63                  823 	.db #0x63
   02D2 03                  824 	.db #0x03
   02D3 63                  825 	.db #0x63
   02D4 03                  826 	.db #0x03
   02D5 63                  827 	.db #0x63
   02D6 03                  828 	.db #0x03
   02D7 63                  829 	.db #0x63
   02D8 03                  830 	.db #0x03
   02D9 63                  831 	.db #0x63
   02DA 03                  832 	.db #0x03
   02DB 3E                  833 	.db #0x3E
   02DC 00                  834 	.db #0x00
   02DD 3E                  835 	.db #0x3E
   02DE 00                  836 	.db #0x00
   02DF 63                  837 	.db #0x63
   02E0 03                  838 	.db #0x03
   02E1 63                  839 	.db #0x63
   02E2 03                  840 	.db #0x03
   02E3 63                  841 	.db #0x63
   02E4 03                  842 	.db #0x03
   02E5 63                  843 	.db #0x63
   02E6 03                  844 	.db #0x03
   02E7 63                  845 	.db #0x63
   02E8 03                  846 	.db #0x03
   02E9 7F                  847 	.db #0x7F
   02EA 03                  848 	.db #0x03
   02EB 3E                  849 	.db #0x3E
   02EC 02                  850 	.db #0x02
   02ED 3E                  851 	.db #0x3E
   02EE 3E                  852 	.db #0x3E
   02EF 7F                  853 	.db #0x7F
   02F0 7F                  854 	.db #0x7F
   02F1 63                  855 	.db #0x63
   02F2 63                  856 	.db #0x63
   02F3 63                  857 	.db #0x63
   02F4 63                  858 	.db #0x63
   02F5 63                  859 	.db #0x63
   02F6 63                  860 	.db #0x63
   02F7 63                  861 	.db #0x63
   02F8 63                  862 	.db #0x63
   02F9 63                  863 	.db #0x63
   02FA 63                  864 	.db #0x63
   02FB 3E                  865 	.db #0x3E
   02FC 3E                  866 	.db #0x3E
   02FD 3E                  867 	.db #0x3E
   02FE 3E                  868 	.db #0x3E
   02FF 63                  869 	.db #0x63
   0300 63                  870 	.db #0x63
   0301 63                  871 	.db #0x63
   0302 63                  872 	.db #0x63
   0303 63                  873 	.db #0x63
   0304 63                  874 	.db #0x63
   0305 63                  875 	.db #0x63
   0306 63                  876 	.db #0x63
   0307 63                  877 	.db #0x63
   0308 63                  878 	.db #0x63
   0309 7F                  879 	.db #0x7F
   030A 7F                  880 	.db #0x7F
   030B 3E                  881 	.db #0x3E
   030C 3E                  882 	.db #0x3E
   030D 3E                  883 	.db #0x3E
   030E 3E                  884 	.db #0x3E
   030F 7F                  885 	.db #0x7F
   0310 7F                  886 	.db #0x7F
   0311 63                  887 	.db #0x63
   0312 63                  888 	.db #0x63
   0313 63                  889 	.db #0x63
   0314 63                  890 	.db #0x63
   0315 63                  891 	.db #0x63
   0316 63                  892 	.db #0x63
   0317 63                  893 	.db #0x63
   0318 63                  894 	.db #0x63
   0319 63                  895 	.db #0x63
   031A 63                  896 	.db #0x63
   031B 3E                  897 	.db #0x3E
   031C 3E                  898 	.db #0x3E
   031D 3E                  899 	.db #0x3E
   031E 3E                  900 	.db #0x3E
   031F 63                  901 	.db #0x63
   0320 03                  902 	.db #0x03
   0321 63                  903 	.db #0x63
   0322 03                  904 	.db #0x03
   0323 63                  905 	.db #0x63
   0324 03                  906 	.db #0x03
   0325 63                  907 	.db #0x63
   0326 03                  908 	.db #0x03
   0327 63                  909 	.db #0x63
   0328 03                  910 	.db #0x03
   0329 7F                  911 	.db #0x7F
   032A 7F                  912 	.db #0x7F
   032B 3E                  913 	.db #0x3E
   032C 3E                  914 	.db #0x3E
   032D 3E                  915 	.db #0x3E
   032E 3E                  916 	.db #0x3E
   032F 7F                  917 	.db #0x7F
   0330 7F                  918 	.db #0x7F
   0331 63                  919 	.db #0x63
   0332 63                  920 	.db #0x63
   0333 63                  921 	.db #0x63
   0334 63                  922 	.db #0x63
   0335 63                  923 	.db #0x63
   0336 63                  924 	.db #0x63
   0337 63                  925 	.db #0x63
   0338 63                  926 	.db #0x63
   0339 63                  927 	.db #0x63
   033A 63                  928 	.db #0x63
   033B 3E                  929 	.db #0x3E
   033C 3E                  930 	.db #0x3E
   033D 3E                  931 	.db #0x3E
   033E 3E                  932 	.db #0x3E
   033F 63                  933 	.db #0x63
   0340 63                  934 	.db #0x63
   0341 63                  935 	.db #0x63
   0342 63                  936 	.db #0x63
   0343 63                  937 	.db #0x63
   0344 63                  938 	.db #0x63
   0345 63                  939 	.db #0x63
   0346 63                  940 	.db #0x63
   0347 63                  941 	.db #0x63
   0348 63                  942 	.db #0x63
   0349 7F                  943 	.db #0x7F
   034A 63                  944 	.db #0x63
   034B 3E                  945 	.db #0x3E
   034C 00                  946 	.db #0x00
   034D 3E                  947 	.db #0x3E
   034E 20                  948 	.db #0x20
   034F 7F                  949 	.db #0x7F
   0350 60                  950 	.db #0x60
   0351 63                  951 	.db #0x63
   0352 60                  952 	.db #0x60
   0353 63                  953 	.db #0x63
   0354 60                  954 	.db #0x60
   0355 63                  955 	.db #0x63
   0356 60                  956 	.db #0x60
   0357 63                  957 	.db #0x63
   0358 60                  958 	.db #0x60
   0359 63                  959 	.db #0x63
   035A 60                  960 	.db #0x60
   035B 3E                  961 	.db #0x3E
   035C 3E                  962 	.db #0x3E
   035D 3E                  963 	.db #0x3E
   035E 3E                  964 	.db #0x3E
   035F 63                  965 	.db #0x63
   0360 63                  966 	.db #0x63
   0361 63                  967 	.db #0x63
   0362 63                  968 	.db #0x63
   0363 63                  969 	.db #0x63
   0364 63                  970 	.db #0x63
   0365 63                  971 	.db #0x63
   0366 63                  972 	.db #0x63
   0367 63                  973 	.db #0x63
   0368 63                  974 	.db #0x63
   0369 7F                  975 	.db #0x7F
   036A 7F                  976 	.db #0x7F
   036B 3E                  977 	.db #0x3E
   036C 3E                  978 	.db #0x3E
   036D 3E                  979 	.db #0x3E
   036E 3E                  980 	.db #0x3E
   036F 7F                  981 	.db #0x7F
   0370 7F                  982 	.db #0x7F
   0371 63                  983 	.db #0x63
   0372 60                  984 	.db #0x60
   0373 63                  985 	.db #0x63
   0374 60                  986 	.db #0x60
   0375 63                  987 	.db #0x63
   0376 60                  988 	.db #0x60
   0377 63                  989 	.db #0x63
   0378 60                  990 	.db #0x60
   0379 63                  991 	.db #0x63
   037A 60                  992 	.db #0x60
   037B 3E                  993 	.db #0x3E
   037C 20                  994 	.db #0x20
   037D 3E                  995 	.db #0x3E
   037E 20                  996 	.db #0x20
   037F 63                  997 	.db #0x63
   0380 60                  998 	.db #0x60
   0381 63                  999 	.db #0x63
   0382 60                 1000 	.db #0x60
   0383 63                 1001 	.db #0x63
   0384 60                 1002 	.db #0x60
   0385 63                 1003 	.db #0x63
   0386 60                 1004 	.db #0x60
   0387 63                 1005 	.db #0x63
   0388 60                 1006 	.db #0x60
   0389 7F                 1007 	.db #0x7F
   038A 7F                 1008 	.db #0x7F
   038B 3E                 1009 	.db #0x3E
   038C 3E                 1010 	.db #0x3E
   038D 3E                 1011 	.db #0x3E
   038E 02                 1012 	.db #0x02
   038F 7F                 1013 	.db #0x7F
   0390 03                 1014 	.db #0x03
   0391 63                 1015 	.db #0x63
   0392 03                 1016 	.db #0x03
   0393 63                 1017 	.db #0x63
   0394 03                 1018 	.db #0x03
   0395 63                 1019 	.db #0x63
   0396 03                 1020 	.db #0x03
   0397 63                 1021 	.db #0x63
   0398 03                 1022 	.db #0x03
   0399 63                 1023 	.db #0x63
   039A 03                 1024 	.db #0x03
   039B 3E                 1025 	.db #0x3E
   039C 3E                 1026 	.db #0x3E
   039D 3E                 1027 	.db #0x3E
   039E 3E                 1028 	.db #0x3E
   039F 63                 1029 	.db #0x63
   03A0 63                 1030 	.db #0x63
   03A1 63                 1031 	.db #0x63
   03A2 63                 1032 	.db #0x63
   03A3 63                 1033 	.db #0x63
   03A4 63                 1034 	.db #0x63
   03A5 63                 1035 	.db #0x63
   03A6 63                 1036 	.db #0x63
   03A7 63                 1037 	.db #0x63
   03A8 63                 1038 	.db #0x63
   03A9 7F                 1039 	.db #0x7F
   03AA 7F                 1040 	.db #0x7F
   03AB 3E                 1041 	.db #0x3E
   03AC 3E                 1042 	.db #0x3E
   03AD 00                 1043 	.db #0x00
   03AE 00                 1044 	.db #0x00
   03AF 36                 1045 	.db #0x36
   03B0 36                 1046 	.db #0x36
   03B1 36                 1047 	.db #0x36
   03B2 36                 1048 	.db #0x36
   03B3 36                 1049 	.db #0x36
   03B4 36                 1050 	.db #0x36
   03B5 36                 1051 	.db #0x36
   03B6 36                 1052 	.db #0x36
   03B7 7F                 1053 	.db #0x7F
   03B8 7F                 1054 	.db #0x7F
   03B9 7F                 1055 	.db #0x7F
   03BA 7F                 1056 	.db #0x7F
   03BB 36                 1057 	.db #0x36
   03BC 36                 1058 	.db #0x36
   03BD 36                 1059 	.db #0x36
   03BE 36                 1060 	.db #0x36
   03BF 7F                 1061 	.db #0x7F
   03C0 7F                 1062 	.db #0x7F
   03C1 7F                 1063 	.db #0x7F
   03C2 7F                 1064 	.db #0x7F
   03C3 36                 1065 	.db #0x36
   03C4 36                 1066 	.db #0x36
   03C5 36                 1067 	.db #0x36
   03C6 36                 1068 	.db #0x36
   03C7 36                 1069 	.db #0x36
   03C8 36                 1070 	.db #0x36
   03C9 36                 1071 	.db #0x36
   03CA 36                 1072 	.db #0x36
   03CB 00                 1073 	.db #0x00
   03CC 00                 1074 	.db #0x00
   03CD 00                 1075 	.db #0x00
   03CE 00                 1076 	.db #0x00
   03CF 00                 1077 	.db #0x00
   03D0 00                 1078 	.db #0x00
   03D1 2A                 1079 	.db #0x2A
   03D2 2A                 1080 	.db #0x2A
   03D3 6B                 1081 	.db #0x6B
   03D4 6B                 1082 	.db #0x6B
   03D5 6B                 1083 	.db #0x6B
   03D6 6B                 1084 	.db #0x6B
   03D7 6B                 1085 	.db #0x6B
   03D8 6B                 1086 	.db #0x6B
   03D9 3E                 1087 	.db #0x3E
   03DA 3E                 1088 	.db #0x3E
   03DB 1C                 1089 	.db #0x1C
   03DC 1C                 1090 	.db #0x1C
   03DD 3E                 1091 	.db #0x3E
   03DE 3E                 1092 	.db #0x3E
   03DF 6B                 1093 	.db #0x6B
   03E0 6B                 1094 	.db #0x6B
   03E1 6B                 1095 	.db #0x6B
   03E2 6B                 1096 	.db #0x6B
   03E3 6B                 1097 	.db #0x6B
   03E4 6B                 1098 	.db #0x6B
   03E5 2A                 1099 	.db #0x2A
   03E6 2A                 1100 	.db #0x2A
   03E7 00                 1101 	.db #0x00
   03E8 00                 1102 	.db #0x00
   03E9 00                 1103 	.db #0x00
   03EA 00                 1104 	.db #0x00
   03EB 00                 1105 	.db #0x00
   03EC 00                 1106 	.db #0x00
   03ED 3E                 1107 	.db #0x3E
   03EE 00                 1108 	.db #0x00
   03EF 7F                 1109 	.db #0x7F
   03F0 00                 1110 	.db #0x00
   03F1 63                 1111 	.db #0x63
   03F2 00                 1112 	.db #0x00
   03F3 63                 1113 	.db #0x63
   03F4 00                 1114 	.db #0x00
   03F5 63                 1115 	.db #0x63
   03F6 00                 1116 	.db #0x00
   03F7 63                 1117 	.db #0x63
   03F8 00                 1118 	.db #0x00
   03F9 63                 1119 	.db #0x63
   03FA 00                 1120 	.db #0x00
   03FB 3E                 1121 	.db #0x3E
   03FC 00                 1122 	.db #0x00
   03FD 3E                 1123 	.db #0x3E
   03FE 00                 1124 	.db #0x00
   03FF 63                 1125 	.db #0x63
   0400 00                 1126 	.db #0x00
   0401 63                 1127 	.db #0x63
   0402 00                 1128 	.db #0x00
   0403 63                 1129 	.db #0x63
   0404 00                 1130 	.db #0x00
   0405 63                 1131 	.db #0x63
   0406 00                 1132 	.db #0x00
   0407 63                 1133 	.db #0x63
   0408 00                 1134 	.db #0x00
   0409 7F                 1135 	.db #0x7F
   040A 00                 1136 	.db #0x00
   040B 3E                 1137 	.db #0x3E
   040C 00                 1138 	.db #0x00
   040D 3E                 1139 	.db #0x3E
   040E 22                 1140 	.db #0x22
   040F 7F                 1141 	.db #0x7F
   0410 63                 1142 	.db #0x63
   0411 63                 1143 	.db #0x63
   0412 63                 1144 	.db #0x63
   0413 63                 1145 	.db #0x63
   0414 63                 1146 	.db #0x63
   0415 63                 1147 	.db #0x63
   0416 63                 1148 	.db #0x63
   0417 63                 1149 	.db #0x63
   0418 63                 1150 	.db #0x63
   0419 63                 1151 	.db #0x63
   041A 63                 1152 	.db #0x63
   041B 3E                 1153 	.db #0x3E
   041C 3E                 1154 	.db #0x3E
   041D 3E                 1155 	.db #0x3E
   041E 3E                 1156 	.db #0x3E
   041F 63                 1157 	.db #0x63
   0420 03                 1158 	.db #0x03
   0421 63                 1159 	.db #0x63
   0422 03                 1160 	.db #0x03
   0423 63                 1161 	.db #0x63
   0424 03                 1162 	.db #0x03
   0425 63                 1163 	.db #0x63
   0426 03                 1164 	.db #0x03
   0427 63                 1165 	.db #0x63
   0428 03                 1166 	.db #0x03
   0429 7F                 1167 	.db #0x7F
   042A 7F                 1168 	.db #0x7F
   042B 3E                 1169 	.db #0x3E
   042C 3E                 1170 	.db #0x3E
   042D 3E                 1171 	.db #0x3E
   042E 22                 1172 	.db #0x22
   042F 7F                 1173 	.db #0x7F
   0430 63                 1174 	.db #0x63
   0431 77                 1175 	.db #0x77
   0432 77                 1176 	.db #0x77
   0433 77                 1177 	.db #0x77
   0434 77                 1178 	.db #0x77
   0435 77                 1179 	.db #0x77
   0436 77                 1180 	.db #0x77
   0437 77                 1181 	.db #0x77
   0438 77                 1182 	.db #0x77
   0439 6B                 1183 	.db #0x6B
   043A 6B                 1184 	.db #0x6B
   043B 2A                 1185 	.db #0x2A
   043C 2A                 1186 	.db #0x2A
   043D 2A                 1187 	.db #0x2A
   043E 2A                 1188 	.db #0x2A
   043F 6B                 1189 	.db #0x6B
   0440 6B                 1190 	.db #0x6B
   0441 63                 1191 	.db #0x63
   0442 63                 1192 	.db #0x63
   0443 63                 1193 	.db #0x63
   0444 63                 1194 	.db #0x63
   0445 63                 1195 	.db #0x63
   0446 63                 1196 	.db #0x63
   0447 63                 1197 	.db #0x63
   0448 63                 1198 	.db #0x63
   0449 7F                 1199 	.db #0x7F
   044A 63                 1200 	.db #0x63
   044B 3E                 1201 	.db #0x3E
   044C 22                 1202 	.db #0x22
   044D 3E                 1203 	.db #0x3E
   044E 22                 1204 	.db #0x22
   044F 7F                 1205 	.db #0x7F
   0450 63                 1206 	.db #0x63
   0451 63                 1207 	.db #0x63
   0452 63                 1208 	.db #0x63
   0453 63                 1209 	.db #0x63
   0454 63                 1210 	.db #0x63
   0455 63                 1211 	.db #0x63
   0456 63                 1212 	.db #0x63
   0457 63                 1213 	.db #0x63
   0458 63                 1214 	.db #0x63
   0459 63                 1215 	.db #0x63
   045A 63                 1216 	.db #0x63
   045B 3E                 1217 	.db #0x3E
   045C 22                 1218 	.db #0x22
   045D 3E                 1219 	.db #0x3E
   045E 22                 1220 	.db #0x22
   045F 63                 1221 	.db #0x63
   0460 63                 1222 	.db #0x63
   0461 63                 1223 	.db #0x63
   0462 63                 1224 	.db #0x63
   0463 63                 1225 	.db #0x63
   0464 63                 1226 	.db #0x63
   0465 63                 1227 	.db #0x63
   0466 63                 1228 	.db #0x63
   0467 63                 1229 	.db #0x63
   0468 63                 1230 	.db #0x63
   0469 7F                 1231 	.db #0x7F
   046A 7F                 1232 	.db #0x7F
   046B 3E                 1233 	.db #0x3E
   046C 3E                 1234 	.db #0x3E
   046D 3E                 1235 	.db #0x3E
   046E 3E                 1236 	.db #0x3E
   046F 7F                 1237 	.db #0x7F
   0470 7F                 1238 	.db #0x7F
   0471 63                 1239 	.db #0x63
   0472 60                 1240 	.db #0x60
   0473 63                 1241 	.db #0x63
   0474 60                 1242 	.db #0x60
   0475 63                 1243 	.db #0x63
   0476 60                 1244 	.db #0x60
   0477 63                 1245 	.db #0x63
   0478 60                 1246 	.db #0x60
   0479 63                 1247 	.db #0x63
   047A 60                 1248 	.db #0x60
   047B 3F                 1249 	.db #0x3F
   047C 27                 1250 	.db #0x27
   047D 3F                 1251 	.db #0x3F
   047E 27                 1252 	.db #0x27
   047F 63                 1253 	.db #0x63
   0480 63                 1254 	.db #0x63
   0481 63                 1255 	.db #0x63
   0482 63                 1256 	.db #0x63
   0483 63                 1257 	.db #0x63
   0484 63                 1258 	.db #0x63
   0485 63                 1259 	.db #0x63
   0486 63                 1260 	.db #0x63
   0487 63                 1261 	.db #0x63
   0488 63                 1262 	.db #0x63
   0489 7F                 1263 	.db #0x7F
   048A 7F                 1264 	.db #0x7F
   048B 3E                 1265 	.db #0x3E
   048C 3E                 1266 	.db #0x3E
   048D 00                 1267 	.db #0x00
   048E 00                 1268 	.db #0x00
   048F 00                 1269 	.db #0x00
   0490 00                 1270 	.db #0x00
   0491 00                 1271 	.db #0x00
   0492 00                 1272 	.db #0x00
   0493 00                 1273 	.db #0x00
   0494 00                 1274 	.db #0x00
   0495 00                 1275 	.db #0x00
   0496 00                 1276 	.db #0x00
   0497 00                 1277 	.db #0x00
   0498 00                 1278 	.db #0x00
   0499 00                 1279 	.db #0x00
   049A 00                 1280 	.db #0x00
   049B 3E                 1281 	.db #0x3E
   049C 3E                 1282 	.db #0x3E
   049D 3E                 1283 	.db #0x3E
   049E 3E                 1284 	.db #0x3E
   049F 00                 1285 	.db #0x00
   04A0 00                 1286 	.db #0x00
   04A1 00                 1287 	.db #0x00
   04A2 00                 1288 	.db #0x00
   04A3 00                 1289 	.db #0x00
   04A4 00                 1290 	.db #0x00
   04A5 00                 1291 	.db #0x00
   04A6 00                 1292 	.db #0x00
   04A7 00                 1293 	.db #0x00
   04A8 00                 1294 	.db #0x00
   04A9 00                 1295 	.db #0x00
   04AA 00                 1296 	.db #0x00
   04AB 00                 1297 	.db #0x00
   04AC 00                 1298 	.db #0x00
   04AD 67                 1299 	.db #0x67
   04AE 67                 1300 	.db #0x67
   04AF 67                 1301 	.db #0x67
   04B0 67                 1302 	.db #0x67
   04B1 18                 1303 	.db #0x18
   04B2 18                 1304 	.db #0x18
   04B3 18                 1305 	.db #0x18
   04B4 18                 1306 	.db #0x18
   04B5 18                 1307 	.db #0x18
   04B6 18                 1308 	.db #0x18
   04B7 18                 1309 	.db #0x18
   04B8 18                 1310 	.db #0x18
   04B9 18                 1311 	.db #0x18
   04BA 18                 1312 	.db #0x18
   04BB 00                 1313 	.db #0x00
   04BC 00                 1314 	.db #0x00
   04BD 18                 1315 	.db #0x18
   04BE 18                 1316 	.db #0x18
   04BF 18                 1317 	.db #0x18
   04C0 18                 1318 	.db #0x18
   04C1 18                 1319 	.db #0x18
   04C2 18                 1320 	.db #0x18
   04C3 18                 1321 	.db #0x18
   04C4 18                 1322 	.db #0x18
   04C5 18                 1323 	.db #0x18
   04C6 18                 1324 	.db #0x18
   04C7 18                 1325 	.db #0x18
   04C8 18                 1326 	.db #0x18
   04C9 18                 1327 	.db #0x18
   04CA 18                 1328 	.db #0x18
   04CB 00                 1329 	.db #0x00
   04CC 00                 1330 	.db #0x00
   04CD 00                 1331 	.db #0x00
   04CE 00                 1332 	.db #0x00
   04CF 00                 1333 	.db #0x00
   04D0 00                 1334 	.db #0x00
   04D1 00                 1335 	.db #0x00
   04D2 00                 1336 	.db #0x00
   04D3 00                 1337 	.db #0x00
   04D4 00                 1338 	.db #0x00
   04D5 00                 1339 	.db #0x00
   04D6 00                 1340 	.db #0x00
   04D7 00                 1341 	.db #0x00
   04D8 00                 1342 	.db #0x00
   04D9 00                 1343 	.db #0x00
   04DA 00                 1344 	.db #0x00
   04DB 00                 1345 	.db #0x00
   04DC 00                 1346 	.db #0x00
   04DD 0C                 1347 	.db #0x0C
   04DE 0C                 1348 	.db #0x0C
   04DF 1E                 1349 	.db #0x1E
   04E0 1E                 1350 	.db #0x1E
   04E1 1E                 1351 	.db #0x1E
   04E2 1E                 1352 	.db #0x1E
   04E3 1E                 1353 	.db #0x1E
   04E4 1E                 1354 	.db #0x1E
   04E5 0C                 1355 	.db #0x0C
   04E6 0C                 1356 	.db #0x0C
   04E7 04                 1357 	.db #0x04
   04E8 04                 1358 	.db #0x04
   04E9 08                 1359 	.db #0x08
   04EA 08                 1360 	.db #0x08
   04EB 00                 1361 	.db #0x00
   04EC 00                 1362 	.db #0x00
   04ED 3E                 1363 	.db #0x3E
   04EE 3E                 1364 	.db #0x3E
   04EF 7E                 1365 	.db #0x7E
   04F0 7E                 1366 	.db #0x7E
   04F1 63                 1367 	.db #0x63
   04F2 60                 1368 	.db #0x60
   04F3 63                 1369 	.db #0x63
   04F4 60                 1370 	.db #0x60
   04F5 63                 1371 	.db #0x63
   04F6 60                 1372 	.db #0x60
   04F7 63                 1373 	.db #0x63
   04F8 60                 1374 	.db #0x60
   04F9 63                 1375 	.db #0x63
   04FA 60                 1376 	.db #0x60
   04FB 3E                 1377 	.db #0x3E
   04FC 3E                 1378 	.db #0x3E
   04FD 3E                 1379 	.db #0x3E
   04FE 3E                 1380 	.db #0x3E
   04FF 63                 1381 	.db #0x63
   0500 60                 1382 	.db #0x60
   0501 63                 1383 	.db #0x63
   0502 60                 1384 	.db #0x60
   0503 63                 1385 	.db #0x63
   0504 60                 1386 	.db #0x60
   0505 63                 1387 	.db #0x63
   0506 60                 1388 	.db #0x60
   0507 63                 1389 	.db #0x63
   0508 60                 1390 	.db #0x60
   0509 7F                 1391 	.db #0x7F
   050A 60                 1392 	.db #0x60
   050B 3E                 1393 	.db #0x3E
   050C 20                 1394 	.db #0x20
   050D                    1395 _key_num:
   050D FF                 1396 	.db #0xFF
   050E 3C                 1397 	.db #0x3C
   050F FF                 1398 	.db #0xFF
   0510 7E                 1399 	.db #0x7E
   0511 FF                 1400 	.db #0xFF
   0512 66                 1401 	.db #0x66
   0513 FF                 1402 	.db #0xFF
   0514 66                 1403 	.db #0x66
   0515 FF                 1404 	.db #0xFF
   0516 66                 1405 	.db #0x66
   0517 FF                 1406 	.db #0xFF
   0518 66                 1407 	.db #0x66
   0519 FF                 1408 	.db #0xFF
   051A 7E                 1409 	.db #0x7E
   051B FF                 1410 	.db #0xFF
   051C 3C                 1411 	.db #0x3C
   051D FF                 1412 	.db #0xFF
   051E 18                 1413 	.db #0x18
   051F FF                 1414 	.db #0xFF
   0520 38                 1415 	.db #0x38
   0521 FF                 1416 	.db #0xFF
   0522 38                 1417 	.db #0x38
   0523 FF                 1418 	.db #0xFF
   0524 18                 1419 	.db #0x18
   0525 FF                 1420 	.db #0xFF
   0526 18                 1421 	.db #0x18
   0527 FF                 1422 	.db #0xFF
   0528 18                 1423 	.db #0x18
   0529 FF                 1424 	.db #0xFF
   052A 18                 1425 	.db #0x18
   052B FF                 1426 	.db #0xFF
   052C 18                 1427 	.db #0x18
   052D FF                 1428 	.db #0xFF
   052E 3C                 1429 	.db #0x3C
   052F FF                 1430 	.db #0xFF
   0530 66                 1431 	.db #0x66
   0531 FF                 1432 	.db #0xFF
   0532 6E                 1433 	.db #0x6E
   0533 FF                 1434 	.db #0xFF
   0534 1C                 1435 	.db #0x1C
   0535 FF                 1436 	.db #0xFF
   0536 38                 1437 	.db #0x38
   0537 FF                 1438 	.db #0xFF
   0538 70                 1439 	.db #0x70
   0539 FF                 1440 	.db #0xFF
   053A 7E                 1441 	.db #0x7E
   053B FF                 1442 	.db #0xFF
   053C 7E                 1443 	.db #0x7E
   053D FF                 1444 	.db #0xFF
   053E 7C                 1445 	.db #0x7C
   053F FF                 1446 	.db #0xFF
   0540 7E                 1447 	.db #0x7E
   0541 FF                 1448 	.db #0xFF
   0542 06                 1449 	.db #0x06
   0543 FF                 1450 	.db #0xFF
   0544 3E                 1451 	.db #0x3E
   0545 FF                 1452 	.db #0xFF
   0546 3E                 1453 	.db #0x3E
   0547 FF                 1454 	.db #0xFF
   0548 06                 1455 	.db #0x06
   0549 FF                 1456 	.db #0xFF
   054A 7E                 1457 	.db #0x7E
   054B FF                 1458 	.db #0xFF
   054C 7C                 1459 	.db #0x7C
   054D FF                 1460 	.db #0xFF
   054E 0C                 1461 	.db #0x0C
   054F FF                 1462 	.db #0xFF
   0550 1C                 1463 	.db #0x1C
   0551 FF                 1464 	.db #0xFF
   0552 3C                 1465 	.db #0x3C
   0553 FF                 1466 	.db #0xFF
   0554 6C                 1467 	.db #0x6C
   0555 FF                 1468 	.db #0xFF
   0556 6E                 1469 	.db #0x6E
   0557 FF                 1470 	.db #0xFF
   0558 7E                 1471 	.db #0x7E
   0559 FF                 1472 	.db #0xFF
   055A 0C                 1473 	.db #0x0C
   055B FF                 1474 	.db #0xFF
   055C 0C                 1475 	.db #0x0C
   055D FF                 1476 	.db #0xFF
   055E 7C                 1477 	.db #0x7C
   055F FF                 1478 	.db #0xFF
   0560 7C                 1479 	.db #0x7C
   0561 FF                 1480 	.db #0xFF
   0562 60                 1481 	.db #0x60
   0563 FF                 1482 	.db #0xFF
   0564 7C                 1483 	.db #0x7C
   0565 FF                 1484 	.db #0xFF
   0566 06                 1485 	.db #0x06
   0567 FF                 1486 	.db #0xFF
   0568 06                 1487 	.db #0x06
   0569 FF                 1488 	.db #0xFF
   056A 7E                 1489 	.db #0x7E
   056B FF                 1490 	.db #0xFF
   056C 7C                 1491 	.db #0x7C
   056D 3C                 1492 	.db #0x3C
   056E 3C                 1493 	.db #0x3C
   056F 62                 1494 	.db #0x62
   0570 62                 1495 	.db #0x62
   0571 60                 1496 	.db #0x60
   0572 60                 1497 	.db #0x60
   0573 7C                 1498 	.db #0x7C
   0574 7C                 1499 	.db #0x7C
   0575 7E                 1500 	.db #0x7E
   0576 7E                 1501 	.db #0x7E
   0577 62                 1502 	.db #0x62
   0578 62                 1503 	.db #0x62
   0579 62                 1504 	.db #0x62
   057A 62                 1505 	.db #0x62
   057B 3C                 1506 	.db #0x3C
   057C 3C                 1507 	.db #0x3C
   057D 7E                 1508 	.db #0x7E
   057E 7E                 1509 	.db #0x7E
   057F 06                 1510 	.db #0x06
   0580 06                 1511 	.db #0x06
   0581 06                 1512 	.db #0x06
   0582 06                 1513 	.db #0x06
   0583 0C                 1514 	.db #0x0C
   0584 0C                 1515 	.db #0x0C
   0585 18                 1516 	.db #0x18
   0586 18                 1517 	.db #0x18
   0587 18                 1518 	.db #0x18
   0588 18                 1519 	.db #0x18
   0589 18                 1520 	.db #0x18
   058A 18                 1521 	.db #0x18
   058B 18                 1522 	.db #0x18
   058C 18                 1523 	.db #0x18
   058D 3C                 1524 	.db #0x3C
   058E 3C                 1525 	.db #0x3C
   058F 66                 1526 	.db #0x66
   0590 66                 1527 	.db #0x66
   0591 66                 1528 	.db #0x66
   0592 66                 1529 	.db #0x66
   0593 3C                 1530 	.db #0x3C
   0594 3C                 1531 	.db #0x3C
   0595 7E                 1532 	.db #0x7E
   0596 7E                 1533 	.db #0x7E
   0597 66                 1534 	.db #0x66
   0598 66                 1535 	.db #0x66
   0599 66                 1536 	.db #0x66
   059A 66                 1537 	.db #0x66
   059B 3C                 1538 	.db #0x3C
   059C 3C                 1539 	.db #0x3C
   059D 3C                 1540 	.db #0x3C
   059E 3C                 1541 	.db #0x3C
   059F 7E                 1542 	.db #0x7E
   05A0 7E                 1543 	.db #0x7E
   05A1 46                 1544 	.db #0x46
   05A2 46                 1545 	.db #0x46
   05A3 46                 1546 	.db #0x46
   05A4 46                 1547 	.db #0x46
   05A5 3E                 1548 	.db #0x3E
   05A6 3E                 1549 	.db #0x3E
   05A7 06                 1550 	.db #0x06
   05A8 06                 1551 	.db #0x06
   05A9 46                 1552 	.db #0x46
   05AA 46                 1553 	.db #0x46
   05AB 3C                 1554 	.db #0x3C
   05AC 3C                 1555 	.db #0x3C
   05AD 3C                 1556 	.db #0x3C
   05AE 3C                 1557 	.db #0x3C
   05AF 66                 1558 	.db #0x66
   05B0 66                 1559 	.db #0x66
   05B1 66                 1560 	.db #0x66
   05B2 66                 1561 	.db #0x66
   05B3 7E                 1562 	.db #0x7E
   05B4 7E                 1563 	.db #0x7E
   05B5 7E                 1564 	.db #0x7E
   05B6 7E                 1565 	.db #0x7E
   05B7 66                 1566 	.db #0x66
   05B8 66                 1567 	.db #0x66
   05B9 66                 1568 	.db #0x66
   05BA 66                 1569 	.db #0x66
   05BB 66                 1570 	.db #0x66
   05BC 66                 1571 	.db #0x66
   05BD 7E                 1572 	.db #0x7E
   05BE 7E                 1573 	.db #0x7E
   05BF 7F                 1574 	.db #0x7F
   05C0 7F                 1575 	.db #0x7F
   05C1 41                 1576 	.db #0x41
   05C2 41                 1577 	.db #0x41
   05C3 7E                 1578 	.db #0x7E
   05C4 7E                 1579 	.db #0x7E
   05C5 7F                 1580 	.db #0x7F
   05C6 7F                 1581 	.db #0x7F
   05C7 41                 1582 	.db #0x41
   05C8 41                 1583 	.db #0x41
   05C9 7F                 1584 	.db #0x7F
   05CA 7F                 1585 	.db #0x7F
   05CB 7E                 1586 	.db #0x7E
   05CC 7E                 1587 	.db #0x7E
   05CD 3C                 1588 	.db #0x3C
   05CE 3C                 1589 	.db #0x3C
   05CF 7E                 1590 	.db #0x7E
   05D0 7E                 1591 	.db #0x7E
   05D1 C2                 1592 	.db #0xC2
   05D2 C2                 1593 	.db #0xC2
   05D3 C0                 1594 	.db #0xC0
   05D4 C0                 1595 	.db #0xC0
   05D5 C0                 1596 	.db #0xC0
   05D6 C0                 1597 	.db #0xC0
   05D7 C2                 1598 	.db #0xC2
   05D8 C2                 1599 	.db #0xC2
   05D9 7E                 1600 	.db #0x7E
   05DA 7E                 1601 	.db #0x7E
   05DB 3C                 1602 	.db #0x3C
   05DC 3C                 1603 	.db #0x3C
   05DD 7E                 1604 	.db #0x7E
   05DE 7E                 1605 	.db #0x7E
   05DF 7F                 1606 	.db #0x7F
   05E0 7F                 1607 	.db #0x7F
   05E1 63                 1608 	.db #0x63
   05E2 63                 1609 	.db #0x63
   05E3 63                 1610 	.db #0x63
   05E4 63                 1611 	.db #0x63
   05E5 63                 1612 	.db #0x63
   05E6 63                 1613 	.db #0x63
   05E7 63                 1614 	.db #0x63
   05E8 63                 1615 	.db #0x63
   05E9 7F                 1616 	.db #0x7F
   05EA 7F                 1617 	.db #0x7F
   05EB 7E                 1618 	.db #0x7E
   05EC 7E                 1619 	.db #0x7E
   05ED 36                 1620 	.db #0x36
   05EE 36                 1621 	.db #0x36
   05EF 7F                 1622 	.db #0x7F
   05F0 7F                 1623 	.db #0x7F
   05F1 7F                 1624 	.db #0x7F
   05F2 7F                 1625 	.db #0x7F
   05F3 36                 1626 	.db #0x36
   05F4 36                 1627 	.db #0x36
   05F5 7F                 1628 	.db #0x7F
   05F6 7F                 1629 	.db #0x7F
   05F7 7F                 1630 	.db #0x7F
   05F8 7F                 1631 	.db #0x7F
   05F9 36                 1632 	.db #0x36
   05FA 36                 1633 	.db #0x36
   05FB 36                 1634 	.db #0x36
   05FC 36                 1635 	.db #0x36
   05FD C3                 1636 	.db #0xC3
   05FE C3                 1637 	.db #0xC3
   05FF 66                 1638 	.db #0x66
   0600 66                 1639 	.db #0x66
   0601 3C                 1640 	.db #0x3C
   0602 3C                 1641 	.db #0x3C
   0603 FF                 1642 	.db #0xFF
   0604 FF                 1643 	.db #0xFF
   0605 FF                 1644 	.db #0xFF
   0606 FF                 1645 	.db #0xFF
   0607 3C                 1646 	.db #0x3C
   0608 3C                 1647 	.db #0x3C
   0609 66                 1648 	.db #0x66
   060A 66                 1649 	.db #0x66
   060B C3                 1650 	.db #0xC3
   060C C3                 1651 	.db #0xC3
   060D F0                 1652 	.db #0xF0
   060E F0                 1653 	.db #0xF0
   060F 90                 1654 	.db #0x90
   0610 90                 1655 	.db #0x90
   0611 F0                 1656 	.db #0xF0
   0612 F0                 1657 	.db #0xF0
   0613 90                 1658 	.db #0x90
   0614 90                 1659 	.db #0x90
   0615 97                 1660 	.db #0x97
   0616 97                 1661 	.db #0x97
   0617 08                 1662 	.db #0x08
   0618 08                 1663 	.db #0x08
   0619 08                 1664 	.db #0x08
   061A 08                 1665 	.db #0x08
   061B 07                 1666 	.db #0x07
   061C 07                 1667 	.db #0x07
   061D 0C                 1668 	.db #0x0C
   061E 0C                 1669 	.db #0x0C
   061F 1C                 1670 	.db #0x1C
   0620 1C                 1671 	.db #0x1C
   0621 3C                 1672 	.db #0x3C
   0622 3C                 1673 	.db #0x3C
   0623 7C                 1674 	.db #0x7C
   0624 7C                 1675 	.db #0x7C
   0625 7C                 1676 	.db #0x7C
   0626 7C                 1677 	.db #0x7C
   0627 3C                 1678 	.db #0x3C
   0628 3C                 1679 	.db #0x3C
   0629 1C                 1680 	.db #0x1C
   062A 1C                 1681 	.db #0x1C
   062B 0C                 1682 	.db #0x0C
   062C 0C                 1683 	.db #0x0C
   062D 00                 1684 	.db #0x00
   062E 00                 1685 	.db #0x00
   062F 18                 1686 	.db #0x18
   0630 18                 1687 	.db #0x18
   0631 3C                 1688 	.db #0x3C
   0632 3C                 1689 	.db #0x3C
   0633 3C                 1690 	.db #0x3C
   0634 3C                 1691 	.db #0x3C
   0635 1C                 1692 	.db #0x1C
   0636 1C                 1693 	.db #0x1C
   0637 0C                 1694 	.db #0x0C
   0638 0C                 1695 	.db #0x0C
   0639 38                 1696 	.db #0x38
   063A 38                 1697 	.db #0x38
   063B 00                 1698 	.db #0x00
   063C 00                 1699 	.db #0x00
   063D 3C                 1700 	.db #0x3C
   063E 3C                 1701 	.db #0x3C
   063F 42                 1702 	.db #0x42
   0640 42                 1703 	.db #0x42
   0641 02                 1704 	.db #0x02
   0642 02                 1705 	.db #0x02
   0643 1C                 1706 	.db #0x1C
   0644 1C                 1707 	.db #0x1C
   0645 18                 1708 	.db #0x18
   0646 18                 1709 	.db #0x18
   0647 00                 1710 	.db #0x00
   0648 00                 1711 	.db #0x00
   0649 18                 1712 	.db #0x18
   064A 18                 1713 	.db #0x18
   064B 18                 1714 	.db #0x18
   064C 18                 1715 	.db #0x18
   064D 00                 1716 	.db #0x00
   064E 00                 1717 	.db #0x00
   064F 18                 1718 	.db #0x18
   0650 18                 1719 	.db #0x18
   0651 3C                 1720 	.db #0x3C
   0652 3C                 1721 	.db #0x3C
   0653 7E                 1722 	.db #0x7E
   0654 7E                 1723 	.db #0x7E
   0655 FF                 1724 	.db #0xFF
   0656 FF                 1725 	.db #0xFF
   0657 FF                 1726 	.db #0xFF
   0658 FF                 1727 	.db #0xFF
   0659 00                 1728 	.db #0x00
   065A 00                 1729 	.db #0x00
   065B 00                 1730 	.db #0x00
   065C 00                 1731 	.db #0x00
   065D 00                 1732 	.db #0x00
   065E 00                 1733 	.db #0x00
   065F 00                 1734 	.db #0x00
   0660 00                 1735 	.db #0x00
   0661 FF                 1736 	.db #0xFF
   0662 FF                 1737 	.db #0xFF
   0663 FF                 1738 	.db #0xFF
   0664 FF                 1739 	.db #0xFF
   0665 7E                 1740 	.db #0x7E
   0666 7E                 1741 	.db #0x7E
   0667 3C                 1742 	.db #0x3C
   0668 3C                 1743 	.db #0x3C
   0669 18                 1744 	.db #0x18
   066A 18                 1745 	.db #0x18
   066B 00                 1746 	.db #0x00
   066C 00                 1747 	.db #0x00
   066D 12                 1748 	.db #0x12
   066E 12                 1749 	.db #0x12
   066F 34                 1750 	.db #0x34
   0670 34                 1751 	.db #0x34
   0671 F1                 1752 	.db #0xF1
   0672 F1                 1753 	.db #0xF1
   0673 F2                 1754 	.db #0xF2
   0674 F2                 1755 	.db #0xF2
   0675 F2                 1756 	.db #0xF2
   0676 F2                 1757 	.db #0xF2
   0677 F1                 1758 	.db #0xF1
   0678 F1                 1759 	.db #0xF1
   0679 34                 1760 	.db #0x34
   067A 34                 1761 	.db #0x34
   067B 12                 1762 	.db #0x12
   067C 12                 1763 	.db #0x12
   067D                    1764 _cursor_data:
   067D 06                 1765 	.db #0x06
   067E 06                 1766 	.db #0x06
   067F 09                 1767 	.db #0x09
   0680 09                 1768 	.db #0x09
   0681 09                 1769 	.db #0x09
   0682 09                 1770 	.db #0x09
   0683 09                 1771 	.db #0x09
   0684 0F                 1772 	.db #0x0F
   0685 09                 1773 	.db #0x09
   0686 0F                 1774 	.db #0x0F
   0687 69                 1775 	.db #0x69
   0688 6F                 1776 	.db #0x6F
   0689 19                 1777 	.db #0x19
   068A 3F                 1778 	.db #0x3F
   068B 59                 1779 	.db #0x59
   068C 7F                 1780 	.db #0x7F
   068D 49                 1781 	.db #0x49
   068E 7F                 1782 	.db #0x7F
   068F 49                 1783 	.db #0x49
   0690 7F                 1784 	.db #0x7F
   0691 40                 1785 	.db #0x40
   0692 7F                 1786 	.db #0x7F
   0693 40                 1787 	.db #0x40
   0694 7F                 1788 	.db #0x7F
   0695 20                 1789 	.db #0x20
   0696 3F                 1790 	.db #0x3F
   0697 10                 1791 	.db #0x10
   0698 1F                 1792 	.db #0x1F
   0699 08                 1793 	.db #0x08
   069A 0F                 1794 	.db #0x0F
   069B 0F                 1795 	.db #0x0F
   069C 0F                 1796 	.db #0x0F
   069D 00                 1797 	.db #0x00
   069E 00                 1798 	.db #0x00
   069F 00                 1799 	.db #0x00
   06A0 00                 1800 	.db #0x00
   06A1 00                 1801 	.db #0x00
   06A2 00                 1802 	.db #0x00
   06A3 00                 1803 	.db #0x00
   06A4 00                 1804 	.db #0x00
   06A5 00                 1805 	.db #0x00
   06A6 00                 1806 	.db #0x00
   06A7 00                 1807 	.db #0x00
   06A8 00                 1808 	.db #0x00
   06A9 A8                 1809 	.db #0xA8
   06AA A8                 1810 	.db #0xA8
   06AB 54                 1811 	.db #0x54
   06AC FC                 1812 	.db #0xFC
   06AD 54                 1813 	.db #0x54
   06AE FC                 1814 	.db #0xFC
   06AF 54                 1815 	.db #0x54
   06B0 FC                 1816 	.db #0xFC
   06B1 04                 1817 	.db #0x04
   06B2 FC                 1818 	.db #0xFC
   06B3 04                 1819 	.db #0x04
   06B4 FC                 1820 	.db #0xFC
   06B5 08                 1821 	.db #0x08
   06B6 F8                 1822 	.db #0xF8
   06B7 10                 1823 	.db #0x10
   06B8 F0                 1824 	.db #0xF0
   06B9 20                 1825 	.db #0x20
   06BA E0                 1826 	.db #0xE0
   06BB E0                 1827 	.db #0xE0
   06BC E0                 1828 	.db #0xE0
   06BD 00                 1829 	.db #0x00
   06BE 00                 1830 	.db #0x00
   06BF 06                 1831 	.db #0x06
   06C0 06                 1832 	.db #0x06
   06C1 09                 1833 	.db #0x09
   06C2 09                 1834 	.db #0x09
   06C3 09                 1835 	.db #0x09
   06C4 0F                 1836 	.db #0x0F
   06C5 09                 1837 	.db #0x09
   06C6 0F                 1838 	.db #0x0F
   06C7 69                 1839 	.db #0x69
   06C8 6F                 1840 	.db #0x6F
   06C9 19                 1841 	.db #0x19
   06CA 3F                 1842 	.db #0x3F
   06CB 59                 1843 	.db #0x59
   06CC 7F                 1844 	.db #0x7F
   06CD 49                 1845 	.db #0x49
   06CE 7F                 1846 	.db #0x7F
   06CF 49                 1847 	.db #0x49
   06D0 7F                 1848 	.db #0x7F
   06D1 40                 1849 	.db #0x40
   06D2 7F                 1850 	.db #0x7F
   06D3 40                 1851 	.db #0x40
   06D4 7F                 1852 	.db #0x7F
   06D5 20                 1853 	.db #0x20
   06D6 3F                 1854 	.db #0x3F
   06D7 10                 1855 	.db #0x10
   06D8 1F                 1856 	.db #0x1F
   06D9 08                 1857 	.db #0x08
   06DA 0F                 1858 	.db #0x0F
   06DB 0F                 1859 	.db #0x0F
   06DC 0F                 1860 	.db #0x0F
   06DD 00                 1861 	.db #0x00
   06DE 00                 1862 	.db #0x00
   06DF 00                 1863 	.db #0x00
   06E0 00                 1864 	.db #0x00
   06E1 00                 1865 	.db #0x00
   06E2 00                 1866 	.db #0x00
   06E3 00                 1867 	.db #0x00
   06E4 00                 1868 	.db #0x00
   06E5 00                 1869 	.db #0x00
   06E6 00                 1870 	.db #0x00
   06E7 00                 1871 	.db #0x00
   06E8 00                 1872 	.db #0x00
   06E9 A8                 1873 	.db #0xA8
   06EA A8                 1874 	.db #0xA8
   06EB 54                 1875 	.db #0x54
   06EC FC                 1876 	.db #0xFC
   06ED 54                 1877 	.db #0x54
   06EE FC                 1878 	.db #0xFC
   06EF 54                 1879 	.db #0x54
   06F0 FC                 1880 	.db #0xFC
   06F1 04                 1881 	.db #0x04
   06F2 FC                 1882 	.db #0xFC
   06F3 04                 1883 	.db #0x04
   06F4 FC                 1884 	.db #0xFC
   06F5 08                 1885 	.db #0x08
   06F6 F8                 1886 	.db #0xF8
   06F7 10                 1887 	.db #0x10
   06F8 F0                 1888 	.db #0xF0
   06F9 20                 1889 	.db #0x20
   06FA E0                 1890 	.db #0xE0
   06FB E0                 1891 	.db #0xE0
   06FC E0                 1892 	.db #0xE0
   06FD                    1893 _row:
   06FD 44                 1894 	.db #0x44
   06FE 56                 1895 	.db #0x56
   06FF 66                 1896 	.db #0x66
   0700 75                 1897 	.db #0x75
   0701                    1898 _col:
   0701 94                 1899 	.db #0x94
   0702 9E                 1900 	.db #0x9E
   0703 A7                 1901 	.db #0xA7
   0704 B0                 1902 	.db #0xB0
   0705                    1903 _dtmf_tile:
   0705 04                 1904 	.db #0x04
   0706 04                 1905 	.db #0x04
   0707 04                 1906 	.db #0x04
   0708 04                 1907 	.db #0x04
   0709 04                 1908 	.db #0x04
   070A 04                 1909 	.db #0x04
   070B 04                 1910 	.db #0x04
   070C 04                 1911 	.db #0x04
   070D 04                 1912 	.db #0x04
   070E 04                 1913 	.db #0x04
   070F 04                 1914 	.db #0x04
   0710 04                 1915 	.db #0x04
   0711 04                 1916 	.db #0x04
   0712 04                 1917 	.db #0x04
   0713 04                 1918 	.db #0x04
   0714 04                 1919 	.db #0x04
   0715 04                 1920 	.db #0x04
   0716 04                 1921 	.db #0x04
   0717 04                 1922 	.db #0x04
   0718 04                 1923 	.db #0x04
   0719 00                 1924 	.db #0x00
   071A 01                 1925 	.db #0x01
   071B 01                 1926 	.db #0x01
   071C 01                 1927 	.db #0x01
   071D 01                 1928 	.db #0x01
   071E 01                 1929 	.db #0x01
   071F 01                 1930 	.db #0x01
   0720 01                 1931 	.db #0x01
   0721 01                 1932 	.db #0x01
   0722 01                 1933 	.db #0x01
   0723 01                 1934 	.db #0x01
   0724 01                 1935 	.db #0x01
   0725 01                 1936 	.db #0x01
   0726 01                 1937 	.db #0x01
   0727 01                 1938 	.db #0x01
   0728 01                 1939 	.db #0x01
   0729 01                 1940 	.db #0x01
   072A 01                 1941 	.db #0x01
   072B 01                 1942 	.db #0x01
   072C 02                 1943 	.db #0x02
   072D 03                 1944 	.db #0x03
   072E 04                 1945 	.db #0x04
   072F 04                 1946 	.db #0x04
   0730 04                 1947 	.db #0x04
   0731 04                 1948 	.db #0x04
   0732 04                 1949 	.db #0x04
   0733 04                 1950 	.db #0x04
   0734 04                 1951 	.db #0x04
   0735 04                 1952 	.db #0x04
   0736 04                 1953 	.db #0x04
   0737 04                 1954 	.db #0x04
   0738 04                 1955 	.db #0x04
   0739 04                 1956 	.db #0x04
   073A 04                 1957 	.db #0x04
   073B 04                 1958 	.db #0x04
   073C 04                 1959 	.db #0x04
   073D 04                 1960 	.db #0x04
   073E 04                 1961 	.db #0x04
   073F 04                 1962 	.db #0x04
   0740 05                 1963 	.db #0x05
   0741 03                 1964 	.db #0x03
   0742 04                 1965 	.db #0x04
   0743 04                 1966 	.db #0x04
   0744 04                 1967 	.db #0x04
   0745 04                 1968 	.db #0x04
   0746 04                 1969 	.db #0x04
   0747 04                 1970 	.db #0x04
   0748 04                 1971 	.db #0x04
   0749 04                 1972 	.db #0x04
   074A 04                 1973 	.db #0x04
   074B 04                 1974 	.db #0x04
   074C 04                 1975 	.db #0x04
   074D 04                 1976 	.db #0x04
   074E 04                 1977 	.db #0x04
   074F 04                 1978 	.db #0x04
   0750 04                 1979 	.db #0x04
   0751 04                 1980 	.db #0x04
   0752 04                 1981 	.db #0x04
   0753 04                 1982 	.db #0x04
   0754 05                 1983 	.db #0x05
   0755 06                 1984 	.db #0x06
   0756 07                 1985 	.db #0x07
   0757 07                 1986 	.db #0x07
   0758 07                 1987 	.db #0x07
   0759 07                 1988 	.db #0x07
   075A 07                 1989 	.db #0x07
   075B 07                 1990 	.db #0x07
   075C 07                 1991 	.db #0x07
   075D 07                 1992 	.db #0x07
   075E 07                 1993 	.db #0x07
   075F 07                 1994 	.db #0x07
   0760 07                 1995 	.db #0x07
   0761 07                 1996 	.db #0x07
   0762 07                 1997 	.db #0x07
   0763 07                 1998 	.db #0x07
   0764 07                 1999 	.db #0x07
   0765 07                 2000 	.db #0x07
   0766 07                 2001 	.db #0x07
   0767 07                 2002 	.db #0x07
   0768 08                 2003 	.db #0x08
   0769 04                 2004 	.db #0x04
   076A 09                 2005 	.db #0x09
   076B 0A                 2006 	.db #0x0A
   076C 0B                 2007 	.db #0x0B
   076D 09                 2008 	.db #0x09
   076E 0A                 2009 	.db #0x0A
   076F 0B                 2010 	.db #0x0B
   0770 09                 2011 	.db #0x09
   0771 0A                 2012 	.db #0x0A
   0772 0B                 2013 	.db #0x0B
   0773 09                 2014 	.db #0x09
   0774 0A                 2015 	.db #0x0A
   0775 0B                 2016 	.db #0x0B
   0776 04                 2017 	.db #0x04
   0777 09                 2018 	.db #0x09
   0778 0A                 2019 	.db #0x0A
   0779 0B                 2020 	.db #0x0B
   077A 09                 2021 	.db #0x09
   077B 0A                 2022 	.db #0x0A
   077C 0B                 2023 	.db #0x0B
   077D 04                 2024 	.db #0x04
   077E 0C                 2025 	.db #0x0C
   077F 0D                 2026 	.db #0x0D
   0780 0E                 2027 	.db #0x0E
   0781 0C                 2028 	.db #0x0C
   0782 0D                 2029 	.db #0x0D
   0783 0E                 2030 	.db #0x0E
   0784 0C                 2031 	.db #0x0C
   0785 0D                 2032 	.db #0x0D
   0786 0E                 2033 	.db #0x0E
   0787 0C                 2034 	.db #0x0C
   0788 0D                 2035 	.db #0x0D
   0789 0E                 2036 	.db #0x0E
   078A 04                 2037 	.db #0x04
   078B 0C                 2038 	.db #0x0C
   078C 0D                 2039 	.db #0x0D
   078D 0E                 2040 	.db #0x0E
   078E 0C                 2041 	.db #0x0C
   078F 0D                 2042 	.db #0x0D
   0790 0E                 2043 	.db #0x0E
   0791 04                 2044 	.db #0x04
   0792 0F                 2045 	.db #0x0F
   0793 10                 2046 	.db #0x10
   0794 11                 2047 	.db #0x11
   0795 0F                 2048 	.db #0x0F
   0796 10                 2049 	.db #0x10
   0797 11                 2050 	.db #0x11
   0798 0F                 2051 	.db #0x0F
   0799 10                 2052 	.db #0x10
   079A 11                 2053 	.db #0x11
   079B 0F                 2054 	.db #0x0F
   079C 10                 2055 	.db #0x10
   079D 11                 2056 	.db #0x11
   079E 04                 2057 	.db #0x04
   079F 0F                 2058 	.db #0x0F
   07A0 10                 2059 	.db #0x10
   07A1 11                 2060 	.db #0x11
   07A2 0F                 2061 	.db #0x0F
   07A3 10                 2062 	.db #0x10
   07A4 11                 2063 	.db #0x11
   07A5 04                 2064 	.db #0x04
   07A6 09                 2065 	.db #0x09
   07A7 0A                 2066 	.db #0x0A
   07A8 0B                 2067 	.db #0x0B
   07A9 09                 2068 	.db #0x09
   07AA 0A                 2069 	.db #0x0A
   07AB 0B                 2070 	.db #0x0B
   07AC 09                 2071 	.db #0x09
   07AD 0A                 2072 	.db #0x0A
   07AE 0B                 2073 	.db #0x0B
   07AF 09                 2074 	.db #0x09
   07B0 0A                 2075 	.db #0x0A
   07B1 0B                 2076 	.db #0x0B
   07B2 04                 2077 	.db #0x04
   07B3 09                 2078 	.db #0x09
   07B4 0A                 2079 	.db #0x0A
   07B5 0B                 2080 	.db #0x0B
   07B6 09                 2081 	.db #0x09
   07B7 0A                 2082 	.db #0x0A
   07B8 0B                 2083 	.db #0x0B
   07B9 04                 2084 	.db #0x04
   07BA 0C                 2085 	.db #0x0C
   07BB 0D                 2086 	.db #0x0D
   07BC 0E                 2087 	.db #0x0E
   07BD 0C                 2088 	.db #0x0C
   07BE 0D                 2089 	.db #0x0D
   07BF 0E                 2090 	.db #0x0E
   07C0 0C                 2091 	.db #0x0C
   07C1 0D                 2092 	.db #0x0D
   07C2 0E                 2093 	.db #0x0E
   07C3 0C                 2094 	.db #0x0C
   07C4 0D                 2095 	.db #0x0D
   07C5 0E                 2096 	.db #0x0E
   07C6 04                 2097 	.db #0x04
   07C7 0C                 2098 	.db #0x0C
   07C8 0D                 2099 	.db #0x0D
   07C9 0E                 2100 	.db #0x0E
   07CA 0C                 2101 	.db #0x0C
   07CB 0D                 2102 	.db #0x0D
   07CC 0E                 2103 	.db #0x0E
   07CD 04                 2104 	.db #0x04
   07CE 0F                 2105 	.db #0x0F
   07CF 10                 2106 	.db #0x10
   07D0 11                 2107 	.db #0x11
   07D1 0F                 2108 	.db #0x0F
   07D2 10                 2109 	.db #0x10
   07D3 11                 2110 	.db #0x11
   07D4 0F                 2111 	.db #0x0F
   07D5 10                 2112 	.db #0x10
   07D6 11                 2113 	.db #0x11
   07D7 0F                 2114 	.db #0x0F
   07D8 10                 2115 	.db #0x10
   07D9 11                 2116 	.db #0x11
   07DA 04                 2117 	.db #0x04
   07DB 0F                 2118 	.db #0x0F
   07DC 10                 2119 	.db #0x10
   07DD 11                 2120 	.db #0x11
   07DE 0F                 2121 	.db #0x0F
   07DF 10                 2122 	.db #0x10
   07E0 11                 2123 	.db #0x11
   07E1 04                 2124 	.db #0x04
   07E2 09                 2125 	.db #0x09
   07E3 0A                 2126 	.db #0x0A
   07E4 0B                 2127 	.db #0x0B
   07E5 09                 2128 	.db #0x09
   07E6 0A                 2129 	.db #0x0A
   07E7 0B                 2130 	.db #0x0B
   07E8 09                 2131 	.db #0x09
   07E9 0A                 2132 	.db #0x0A
   07EA 0B                 2133 	.db #0x0B
   07EB 09                 2134 	.db #0x09
   07EC 0A                 2135 	.db #0x0A
   07ED 0B                 2136 	.db #0x0B
   07EE 04                 2137 	.db #0x04
   07EF 09                 2138 	.db #0x09
   07F0 0A                 2139 	.db #0x0A
   07F1 0B                 2140 	.db #0x0B
   07F2 09                 2141 	.db #0x09
   07F3 0A                 2142 	.db #0x0A
   07F4 0B                 2143 	.db #0x0B
   07F5 04                 2144 	.db #0x04
   07F6 0C                 2145 	.db #0x0C
   07F7 0D                 2146 	.db #0x0D
   07F8 0E                 2147 	.db #0x0E
   07F9 0C                 2148 	.db #0x0C
   07FA 0D                 2149 	.db #0x0D
   07FB 0E                 2150 	.db #0x0E
   07FC 0C                 2151 	.db #0x0C
   07FD 0D                 2152 	.db #0x0D
   07FE 0E                 2153 	.db #0x0E
   07FF 0C                 2154 	.db #0x0C
   0800 0D                 2155 	.db #0x0D
   0801 0E                 2156 	.db #0x0E
   0802 04                 2157 	.db #0x04
   0803 0C                 2158 	.db #0x0C
   0804 0D                 2159 	.db #0x0D
   0805 0E                 2160 	.db #0x0E
   0806 0C                 2161 	.db #0x0C
   0807 0D                 2162 	.db #0x0D
   0808 0E                 2163 	.db #0x0E
   0809 04                 2164 	.db #0x04
   080A 0F                 2165 	.db #0x0F
   080B 10                 2166 	.db #0x10
   080C 11                 2167 	.db #0x11
   080D 0F                 2168 	.db #0x0F
   080E 10                 2169 	.db #0x10
   080F 11                 2170 	.db #0x11
   0810 0F                 2171 	.db #0x0F
   0811 10                 2172 	.db #0x10
   0812 11                 2173 	.db #0x11
   0813 0F                 2174 	.db #0x0F
   0814 10                 2175 	.db #0x10
   0815 11                 2176 	.db #0x11
   0816 04                 2177 	.db #0x04
   0817 0F                 2178 	.db #0x0F
   0818 10                 2179 	.db #0x10
   0819 11                 2180 	.db #0x11
   081A 0F                 2181 	.db #0x0F
   081B 10                 2182 	.db #0x10
   081C 11                 2183 	.db #0x11
   081D 04                 2184 	.db #0x04
   081E 09                 2185 	.db #0x09
   081F 0A                 2186 	.db #0x0A
   0820 0B                 2187 	.db #0x0B
   0821 09                 2188 	.db #0x09
   0822 0A                 2189 	.db #0x0A
   0823 0B                 2190 	.db #0x0B
   0824 09                 2191 	.db #0x09
   0825 0A                 2192 	.db #0x0A
   0826 0B                 2193 	.db #0x0B
   0827 09                 2194 	.db #0x09
   0828 0A                 2195 	.db #0x0A
   0829 0B                 2196 	.db #0x0B
   082A 04                 2197 	.db #0x04
   082B 09                 2198 	.db #0x09
   082C 0A                 2199 	.db #0x0A
   082D 0A                 2200 	.db #0x0A
   082E 0A                 2201 	.db #0x0A
   082F 0A                 2202 	.db #0x0A
   0830 0B                 2203 	.db #0x0B
   0831 04                 2204 	.db #0x04
   0832 0C                 2205 	.db #0x0C
   0833 0D                 2206 	.db #0x0D
   0834 0E                 2207 	.db #0x0E
   0835 0C                 2208 	.db #0x0C
   0836 0D                 2209 	.db #0x0D
   0837 0E                 2210 	.db #0x0E
   0838 0C                 2211 	.db #0x0C
   0839 0D                 2212 	.db #0x0D
   083A 0E                 2213 	.db #0x0E
   083B 0C                 2214 	.db #0x0C
   083C 0D                 2215 	.db #0x0D
   083D 0E                 2216 	.db #0x0E
   083E 04                 2217 	.db #0x04
   083F 0C                 2218 	.db #0x0C
   0840 0D                 2219 	.db #0x0D
   0841 0D                 2220 	.db #0x0D
   0842 0D                 2221 	.db #0x0D
   0843 0D                 2222 	.db #0x0D
   0844 0E                 2223 	.db #0x0E
   0845 04                 2224 	.db #0x04
   0846 0F                 2225 	.db #0x0F
   0847 10                 2226 	.db #0x10
   0848 11                 2227 	.db #0x11
   0849 0F                 2228 	.db #0x0F
   084A 10                 2229 	.db #0x10
   084B 11                 2230 	.db #0x11
   084C 0F                 2231 	.db #0x0F
   084D 10                 2232 	.db #0x10
   084E 11                 2233 	.db #0x11
   084F 0F                 2234 	.db #0x0F
   0850 10                 2235 	.db #0x10
   0851 11                 2236 	.db #0x11
   0852 04                 2237 	.db #0x04
   0853 0F                 2238 	.db #0x0F
   0854 10                 2239 	.db #0x10
   0855 10                 2240 	.db #0x10
   0856 10                 2241 	.db #0x10
   0857 10                 2242 	.db #0x10
   0858 11                 2243 	.db #0x11
   0859 04                 2244 	.db #0x04
   085A 04                 2245 	.db #0x04
   085B 04                 2246 	.db #0x04
   085C 04                 2247 	.db #0x04
   085D 04                 2248 	.db #0x04
   085E 04                 2249 	.db #0x04
   085F 04                 2250 	.db #0x04
   0860 04                 2251 	.db #0x04
   0861 04                 2252 	.db #0x04
   0862 04                 2253 	.db #0x04
   0863 04                 2254 	.db #0x04
   0864 04                 2255 	.db #0x04
   0865 04                 2256 	.db #0x04
   0866 04                 2257 	.db #0x04
   0867 04                 2258 	.db #0x04
   0868 04                 2259 	.db #0x04
   0869 04                 2260 	.db #0x04
   086A 04                 2261 	.db #0x04
   086B 04                 2262 	.db #0x04
   086C 04                 2263 	.db #0x04
   086D                    2264 _break_tile:
   086D 09                 2265 	.db #0x09
   086E 0A                 2266 	.db #0x0A
   086F 0B                 2267 	.db #0x0B
   0870 0C                 2268 	.db #0x0C
   0871 0D                 2269 	.db #0x0D
   0872 0E                 2270 	.db #0x0E
   0873 0F                 2271 	.db #0x0F
   0874 10                 2272 	.db #0x10
   0875 11                 2273 	.db #0x11
   0876                    2274 _dialing_break:
   0876 09                 2275 	.db #0x09
   0877 0A                 2276 	.db #0x0A
   0878 0A                 2277 	.db #0x0A
   0879 0A                 2278 	.db #0x0A
   087A 0A                 2279 	.db #0x0A
   087B 0B                 2280 	.db #0x0B
   087C 0C                 2281 	.db #0x0C
   087D 0D                 2282 	.db #0x0D
   087E 0D                 2283 	.db #0x0D
   087F 0D                 2284 	.db #0x0D
   0880 0D                 2285 	.db #0x0D
   0881 0E                 2286 	.db #0x0E
   0882 0F                 2287 	.db #0x0F
   0883 10                 2288 	.db #0x10
   0884 10                 2289 	.db #0x10
   0885 10                 2290 	.db #0x10
   0886 10                 2291 	.db #0x10
   0887 11                 2292 	.db #0x11
   0888                    2293 _press_tile:
   0888 12                 2294 	.db #0x12
   0889 13                 2295 	.db #0x13
   088A 14                 2296 	.db #0x14
   088B 15                 2297 	.db #0x15
   088C 16                 2298 	.db #0x16
   088D 17                 2299 	.db #0x17
   088E 18                 2300 	.db #0x18
   088F 19                 2301 	.db #0x19
   0890 1A                 2302 	.db #0x1A
   0891                    2303 _dialing_press:
   0891 12                 2304 	.db #0x12
   0892 13                 2305 	.db #0x13
   0893 13                 2306 	.db #0x13
   0894 13                 2307 	.db #0x13
   0895 13                 2308 	.db #0x13
   0896 14                 2309 	.db #0x14
   0897 15                 2310 	.db #0x15
   0898 16                 2311 	.db #0x16
   0899 16                 2312 	.db #0x16
   089A 16                 2313 	.db #0x16
   089B 16                 2314 	.db #0x16
   089C 17                 2315 	.db #0x17
   089D 18                 2316 	.db #0x18
   089E 19                 2317 	.db #0x19
   089F 19                 2318 	.db #0x19
   08A0 19                 2319 	.db #0x19
   08A1 19                 2320 	.db #0x19
   08A2 1A                 2321 	.db #0x1A
   08A3                    2322 _init_disp:
   08A3 3B                 2323 	.db #0x3B
   08A4 3B                 2324 	.db #0x3B
   08A5 3B                 2325 	.db #0x3B
   08A6 3B                 2326 	.db #0x3B
   08A7 3B                 2327 	.db #0x3B
   08A8 3B                 2328 	.db #0x3B
   08A9 3B                 2329 	.db #0x3B
   08AA 3B                 2330 	.db #0x3B
   08AB 3B                 2331 	.db #0x3B
   08AC 3B                 2332 	.db #0x3B
   08AD 3B                 2333 	.db #0x3B
   08AE 3B                 2334 	.db #0x3B
   08AF 3B                 2335 	.db #0x3B
   08B0 3B                 2336 	.db #0x3B
   08B1 3B                 2337 	.db #0x3B
   08B2 3B                 2338 	.db #0x3B
   08B3 3B                 2339 	.db #0x3B
   08B4 3B                 2340 	.db #0x3B
   08B5 3C                 2341 	.db #0x3C
   08B6 3C                 2342 	.db #0x3C
   08B7 3C                 2343 	.db #0x3C
   08B8 3C                 2344 	.db #0x3C
   08B9 3C                 2345 	.db #0x3C
   08BA 3C                 2346 	.db #0x3C
   08BB 3C                 2347 	.db #0x3C
   08BC 3C                 2348 	.db #0x3C
   08BD 3C                 2349 	.db #0x3C
   08BE 3C                 2350 	.db #0x3C
   08BF 3C                 2351 	.db #0x3C
   08C0 3C                 2352 	.db #0x3C
   08C1 3C                 2353 	.db #0x3C
   08C2 3C                 2354 	.db #0x3C
   08C3 3C                 2355 	.db #0x3C
   08C4 3C                 2356 	.db #0x3C
   08C5 3C                 2357 	.db #0x3C
   08C6 3C                 2358 	.db #0x3C
   08C7                    2359 _pad:
   08C7 31                 2360 	.db #0x31
   08C8 32                 2361 	.db #0x32
   08C9 33                 2362 	.db #0x33
   08CA 41                 2363 	.db #0x41
   08CB 25                 2364 	.db #0x25
   08CC 50                 2365 	.db #0x50
   08CD 34                 2366 	.db #0x34
   08CE 35                 2367 	.db #0x35
   08CF 36                 2368 	.db #0x36
   08D0 42                 2369 	.db #0x42
   08D1 2D                 2370 	.db #0x2D
   08D2 46                 2371 	.db #0x46
   08D3 37                 2372 	.db #0x37
   08D4 38                 2373 	.db #0x38
   08D5 39                 2374 	.db #0x39
   08D6 43                 2375 	.db #0x43
   08D7 2C                 2376 	.db #0x2C
   08D8 3F                 2377 	.db #0x3F
   08D9 2A                 2378 	.db #0x2A
   08DA 30                 2379 	.db #0x30
   08DB 23                 2380 	.db #0x23
   08DC 44                 2381 	.db #0x44
   08DD 73                 2382 	.db #0x73
   08DE 73                 2383 	.db #0x73
                           2384 ;	r2tune.c 154
                           2385 ;	genLabel
                           2386 ;	genFunction
                           2387 ;	---------------------------------
                           2388 ; Function check_win
                           2389 ; ---------------------------------
   08DF                    2390 ___check_win_start:
   08DF                    2391 _check_win:
   08DF E8 EA              2392 	lda	sp,-22(sp)
                           2393 ;	r2tune.c 157
                           2394 ;	genAssign
                           2395 ;	AOP_STK for _check_win_i_1_1
   08E1 F8 15              2396 	lda	hl,21(sp)
   08E3 36 00              2397 	ld	(hl),#0x00
                           2398 ;	r2tune.c 160
                           2399 ;	genAddrOf
   08E5 F8 0E              2400 	lda	hl,14(sp)
   08E7 45                 2401 	ld	b,l
   08E8 4C                 2402 	ld	c,h
                           2403 ;	genAssign
                           2404 ;	AOP_STK for _check_win_sloc0_1_0
   08E9 F8 05              2405 	lda	hl,5(sp)
   08EB 70                 2406 	ld	(hl),b
   08EC 23                 2407 	inc	hl
   08ED 71                 2408 	ld	(hl),c
                           2409 ;	genArrayInit
                           2410 ;	AOP_STK for _check_win_sloc0_1_0
                           2411 ; _saveRegsForCall: sendSetSize: 0 deInUse: 0 bcInUse: 1 deSending: 0
   08EE C5                 2412 	push	bc
   08EF 2B                 2413 	dec	hl
   08F0 2A                 2414 	ld	a,(hl+)
   08F1 66                 2415 	ld	h,(hl)
   08F2 6F                 2416 	ld	l,a
   08F3 CD 00 00           2417 	call	__initrleblock
   08F6 07                 2418 	.db	7
   08F7 32 52 22 33 52 35  2419 	.db	0x32, 0x52, 0x22, 0x33, 0x52, 0x35, 0x00
        00
   08FE 00                 2420 	.db	0
   08FF C1                 2421 	pop	bc
                           2422 ;	r2tune.c 161
                           2423 ;	genAddrOf
                           2424 ;	AOP_STK for _check_win_sloc0_1_0
   0900 F8 07              2425 	lda	hl,7(sp)
   0902 7D                 2426 	ld	a,l
   0903 54                 2427 	ld	d,h
   0904 F8 05              2428 	lda	hl,5(sp)
   0906 22                 2429 	ld	(hl+),a
   0907 72                 2430 	ld	(hl),d
                           2431 ;	genAssign
                           2432 ;	AOP_STK for _check_win_sloc0_1_0
                           2433 ;	AOP_STK for _check_win_sloc1_1_0
   0908 2B                 2434 	dec	hl
   0909 2A                 2435 	ld	a,(hl+)
   090A 5E                 2436 	ld	e,(hl)
   090B F8 03              2437 	lda	hl,3(sp)
   090D 22                 2438 	ld	(hl+),a
   090E 73                 2439 	ld	(hl),e
                           2440 ;	genArrayInit
                           2441 ;	AOP_STK for _check_win_sloc1_1_0
                           2442 ; _saveRegsForCall: sendSetSize: 0 deInUse: 0 bcInUse: 1 deSending: 0
   090F C5                 2443 	push	bc
   0910 2B                 2444 	dec	hl
   0911 2A                 2445 	ld	a,(hl+)
   0912 66                 2446 	ld	h,(hl)
   0913 6F                 2447 	ld	l,a
   0914 CD 00 00           2448 	call	__initrleblock
   0917 07                 2449 	.db	7
   0918 2F 51 2E 52 26 3B  2450 	.db	0x2F, 0x51, 0x2E, 0x52, 0x26, 0x3B, 0x00
        00
   091F 00                 2451 	.db	0
   0920 C1                 2452 	pop	bc
                           2453 ;	r2tune.c 162
                           2454 ;	genLabel
   0921                    2455 00101$:
                           2456 ;	genPlus
                           2457 ;	AOP_STK for _check_win_i_1_1
                           2458 ;	AOP_STK for _check_win_sloc1_1_0
                           2459 ;	Can't optimise plus by inc, falling back to the normal way
   0921 58                 2460 	ld	e,b
   0922 51                 2461 	ld	d,c
   0923 F8 15              2462 	lda	hl,21(sp)
   0925 6E                 2463 	ld	l,(hl)
   0926 26 00              2464 	ld	h,#0x00
   0928 19                 2465 	add	hl,de
   0929 7D                 2466 	ld	a,l
   092A 54                 2467 	ld	d,h
   092B F8 03              2468 	lda	hl,3(sp)
                           2469 ;	genPointerGet
                           2470 ;	AOP_STK for _check_win_sloc1_1_0
                           2471 ;	AOP_STK for _check_win_sloc2_1_0
   092D 22                 2472 	ld	(hl+),a
   092E 72                 2473 	ld	(hl),d
   092F 5F                 2474 	ld	e,a
   0930 1A                 2475 	ld	a,(de)
   0931 2B                 2476 	dec	hl
   0932 2B                 2477 	dec	hl
   0933 77                 2478 	ld	(hl),a
                           2479 ;	genIfx
                           2480 ;	AOP_STK for _check_win_sloc2_1_0
   0934 AF                 2481 	xor	a,a
   0935 B6                 2482 	or	a,(hl)
   0936 CA 64 09           2483 	jp	z,00103$
                           2484 ;	r2tune.c 163
                           2485 ;	genXor
                           2486 ;	AOP_STK for _check_win_sloc2_1_0
   0939 3E 61              2487 	ld	a,#0x61
   093B AE                 2488 	xor	a,(hl)
                           2489 ;	genAssign (pointer)
                           2490 ;	AOP_STK for _check_win_sloc1_1_0
   093C 23                 2491 	inc	hl
   093D 5E                 2492 	ld	e,(hl)
   093E 23                 2493 	inc	hl
   093F 56                 2494 	ld	d,(hl)
   0940 12                 2495 	ld	(de),a
                           2496 ;	r2tune.c 164
                           2497 ;	genPlus
                           2498 ;	AOP_STK for _check_win_sloc0_1_0
                           2499 ;	AOP_STK for _check_win_i_1_1
                           2500 ;	AOP_STK for _check_win_sloc1_1_0
                           2501 ;	Can't optimise plus by inc, falling back to the normal way
   0941 23                 2502 	inc	hl
   0942 5E                 2503 	ld	e,(hl)
   0943 23                 2504 	inc	hl
   0944 56                 2505 	ld	d,(hl)
   0945 F8 15              2506 	lda	hl,21(sp)
   0947 6E                 2507 	ld	l,(hl)
   0948 26 00              2508 	ld	h,#0x00
   094A 19                 2509 	add	hl,de
   094B 7D                 2510 	ld	a,l
   094C 54                 2511 	ld	d,h
   094D F8 03              2512 	lda	hl,3(sp)
                           2513 ;	genPointerGet
                           2514 ;	AOP_STK for _check_win_sloc1_1_0
                           2515 ;	AOP_STK for _check_win_sloc2_1_0
   094F 22                 2516 	ld	(hl+),a
   0950 72                 2517 	ld	(hl),d
   0951 5F                 2518 	ld	e,a
   0952 1A                 2519 	ld	a,(de)
   0953 2B                 2520 	dec	hl
   0954 2B                 2521 	dec	hl
   0955 77                 2522 	ld	(hl),a
                           2523 ;	genXor
                           2524 ;	AOP_STK for _check_win_sloc2_1_0
   0956 3E 62              2525 	ld	a,#0x62
   0958 AE                 2526 	xor	a,(hl)
                           2527 ;	genAssign (pointer)
                           2528 ;	AOP_STK for _check_win_sloc1_1_0
   0959 23                 2529 	inc	hl
   095A 5E                 2530 	ld	e,(hl)
   095B 23                 2531 	inc	hl
   095C 56                 2532 	ld	d,(hl)
   095D 12                 2533 	ld	(de),a
                           2534 ;	r2tune.c 165
                           2535 ;	genPlus
                           2536 ;	AOP_STK for _check_win_i_1_1
                           2537 ;	genPlusIncr
   095E F8 15              2538 	lda	hl,21(sp)
   0960 34                 2539 	inc	(hl)
                           2540 ;	genGoto
   0961 C3 21 09           2541 	jp	00101$
                           2542 ;	genLabel
   0964                    2543 00103$:
                           2544 ;	r2tune.c 168
                           2545 ;	genCmpEq
                           2546 ;	AOP_STK for 
                           2547 ; genCmpEq: left 1, right 1, result 0
   0964 F8 18              2548 	lda	hl,24(sp)
   0966 7E                 2549 	ld	a,(hl)
   0967 FE 0B              2550 	cp	a,#0x0B
   0969 C2 BD 09           2551 	jp	nz,00106$
   096C 18 03              2552 	jr	00112$
   096E                    2553 00111$:
   096E C3 BD 09           2554 	jp	00106$
   0971                    2555 00112$:
                           2556 ;	r2tune.c 169
                           2557 ;	genAssign
                           2558 ;	AOP_STK for _check_win_sloc1_1_0
   0971 F8 03              2559 	lda	hl,3(sp)
   0973 36 40              2560 	ld	(hl),#0x40
   0975 23                 2561 	inc	hl
   0976 36 FF              2562 	ld	(hl),#0xFF
                           2563 ;	genAssign
                           2564 ;	AOP_STK for _check_win_sloc3_1_0
   0978 F8 00              2565 	lda	hl,0(sp)
   097A 36 40              2566 	ld	(hl),#0x40
   097C 23                 2567 	inc	hl
   097D 36 FF              2568 	ld	(hl),#0xFF
                           2569 ;	genPointerGet
                           2570 ;	AOP_STK for _check_win_sloc3_1_0
                           2571 ;	AOP_STK for _check_win_sloc2_1_0
   097F 2B                 2572 	dec	hl
   0980 5E                 2573 	ld	e,(hl)
   0981 23                 2574 	inc	hl
   0982 56                 2575 	ld	d,(hl)
   0983 1A                 2576 	ld	a,(de)
   0984 23                 2577 	inc	hl
                           2578 ;	genAnd
                           2579 ;	AOP_STK for _check_win_sloc2_1_0
   0985 77                 2580 	ld      (hl),a
                           2581 ; Removed redundent load
   0986 E6 FE              2582 	and	a,#0xFE
                           2583 ;	genAssign (pointer)
                           2584 ;	AOP_STK for _check_win_sloc1_1_0
   0988 23                 2585 	inc	hl
   0989 5E                 2586 	ld	e,(hl)
   098A 23                 2587 	inc	hl
   098B 56                 2588 	ld	d,(hl)
   098C 12                 2589 	ld	(de),a
                           2590 ;	r2tune.c 170
                           2591 ;	genAssign
                           2592 ;	AOP_STK for _check_win_sloc3_1_0
   098D F8 00              2593 	lda	hl,0(sp)
   098F 36 40              2594 	ld	(hl),#0x40
   0991 23                 2595 	inc	hl
   0992 36 FF              2596 	ld	(hl),#0xFF
                           2597 ;	genAssign
                           2598 ;	AOP_STK for _check_win_sloc1_1_0
   0994 23                 2599 	inc	hl
   0995 23                 2600 	inc	hl
   0996 36 40              2601 	ld	(hl),#0x40
   0998 23                 2602 	inc	hl
   0999 36 FF              2603 	ld	(hl),#0xFF
                           2604 ;	genPointerGet
                           2605 ;	AOP_STK for _check_win_sloc1_1_0
                           2606 ;	AOP_STK for _check_win_sloc2_1_0
   099B 2B                 2607 	dec	hl
   099C 5E                 2608 	ld	e,(hl)
   099D 23                 2609 	inc	hl
   099E 56                 2610 	ld	d,(hl)
   099F 1A                 2611 	ld	a,(de)
   09A0 2B                 2612 	dec	hl
   09A1 2B                 2613 	dec	hl
                           2614 ;	genAnd
                           2615 ;	AOP_STK for _check_win_sloc2_1_0
   09A2 77                 2616 	ld      (hl),a
                           2617 ; Removed redundent load
   09A3 E6 FD              2618 	and	a,#0xFD
                           2619 ;	genAssign (pointer)
                           2620 ;	AOP_STK for _check_win_sloc3_1_0
   09A5 2B                 2621 	dec	hl
   09A6 2B                 2622 	dec	hl
   09A7 5E                 2623 	ld	e,(hl)
   09A8 23                 2624 	inc	hl
   09A9 56                 2625 	ld	d,(hl)
   09AA 12                 2626 	ld	(de),a
                           2627 ;	r2tune.c 171
                           2628 ;	genIpush
                           2629 ; _saveRegsForCall: sendSetSize: 0 deInUse: 0 bcInUse: 0 deSending: 0
                           2630 ;	AOP_STK for _check_win_sloc0_1_0
   09AB F8 05              2631 	lda	hl,5(sp)
   09AD 2A                 2632 	ld	a,(hl+)
   09AE 66                 2633 	ld	h,(hl)
   09AF 6F                 2634 	ld	l,a
   09B0 E5                 2635 	push	hl
                           2636 ;	genIpush
   09B1 68                 2637 	ld	l,b
   09B2 61                 2638 	ld	h,c
   09B3 E5                 2639 	push	hl
                           2640 ;	genIpush
   09B4 21 C0 09           2641 	ld	hl,#__str_0
   09B7 E5                 2642 	push	hl
                           2643 ;	genCall
   09B8 CD 00 00           2644 	call	_gprintf
   09BB E8 06              2645 	lda	sp,6(sp)
                           2646 ;	genLabel
   09BD                    2647 00106$:
                           2648 ;	genEndFunction
   09BD E8 16              2649 	lda	sp,22(sp)
   09BF C9                 2650 	ret
   09C0                    2651 ___check_win_end:
   09C0                    2652 __str_0:
   09C0 59 6F 75 20 75 6E  2653 	.ascii "You unlocked the secret!{%s_%s}"
        6C 6F 63 6B 65 64
        20 74 68 65 20 73
        65 63 72 65 74 21
        7B 25 73 5F 25 73
        7D
   09DF 00                 2654 	.db 0x00
                           2655 ;	r2tune.c 176
                           2656 ;	genLabel
                           2657 ;	genFunction
                           2658 ;	---------------------------------
                           2659 ; Function dialtone
                           2660 ; ---------------------------------
   09E0                    2661 ___dialtone_start:
   09E0                    2662 _dialtone:
   09E0 E8 EF              2663 	lda	sp,-17(sp)
                           2664 ;	r2tune.c 178
                           2665 ;	genAssign
                           2666 ;	AOP_STK for _dialtone_i_1_1
   09E2 F8 10              2667 	lda	hl,16(sp)
   09E4 36 00              2668 	ld	(hl),#0x00
                           2669 ;	r2tune.c 180
                           2670 ;	genAddrOf
                           2671 ;	AOP_STK for _dialtone_sloc1_1_0
   09E6 F8 05              2672 	lda	hl,5(sp)
   09E8 7D                 2673 	ld	a,l
   09E9 54                 2674 	ld	d,h
   09EA F8 00              2675 	lda	hl,0(sp)
   09EC 22                 2676 	ld	(hl+),a
   09ED 72                 2677 	ld	(hl),d
                           2678 ;	genAssign
                           2679 ;	AOP_STK for _dialtone_sloc1_1_0
                           2680 ;	AOP_STK for _dialtone_sloc0_1_0
   09EE 2B                 2681 	dec	hl
   09EF 2A                 2682 	ld	a,(hl+)
   09F0 5E                 2683 	ld	e,(hl)
   09F1 23                 2684 	inc	hl
   09F2 22                 2685 	ld	(hl+),a
   09F3 73                 2686 	ld	(hl),e
                           2687 ;	genArrayInit
                           2688 ;	AOP_STK for _dialtone_sloc0_1_0
                           2689 ; _saveRegsForCall: sendSetSize: 0 deInUse: 0 bcInUse: 0 deSending: 0
   09F4 2B                 2690 	dec	hl
   09F5 2A                 2691 	ld	a,(hl+)
   09F6 66                 2692 	ld	h,(hl)
   09F7 6F                 2693 	ld	l,a
   09F8 CD 00 00           2694 	call	__initrleblock
   09FB 0B                 2695 	.db	11
   09FC 31 41 35 37 42 41  2696 	.db	0x31, 0x41, 0x35, 0x37, 0x42, 0x41, 0x31, 0x41
        31 41
   0A04 35 37 43           2697 	.db	0x35, 0x37, 0x43
   0A07 00                 2698 	.db	0
                           2699 ;	r2tune.c 182
                           2700 ;	genAssign
                           2701 ;	AOP_STK for _dialtone_count_1_1
   0A08 F8 04              2702 	lda	hl,4(sp)
   0A0A 36 00              2703 	ld	(hl),#0x00
                           2704 ;	r2tune.c 184
                           2705 ;	genLabel
   0A0C                    2706 00129$:
                           2707 ;	genPlus
                           2708 ;	AOP_STK for 
                           2709 ;	AOP_STK for _dialtone_i_1_1
                           2710 ;	Can't optimise plus by inc, falling back to the normal way
   0A0C F8 17              2711 	lda	hl,23(sp)
   0A0E 5E                 2712 	ld	e,(hl)
   0A0F 23                 2713 	inc	hl
   0A10 56                 2714 	ld	d,(hl)
   0A11 F8 10              2715 	lda	hl,16(sp)
   0A13 6E                 2716 	ld	l,(hl)
   0A14 26 00              2717 	ld	h,#0x00
   0A16 19                 2718 	add	hl,de
   0A17 45                 2719 	ld	b,l
   0A18 4C                 2720 	ld	c,h
                           2721 ;	genPointerGet
   0A19 58                 2722 	ld	e,b
   0A1A 51                 2723 	ld	d,c
   0A1B 1A                 2724 	ld	a,(de)
   0A1C 4F                 2725 	ld	c,a
                           2726 ;	genIfx
   0A1D AF                 2727 	xor	a,a
   0A1E B1                 2728 	or	a,c
   0A1F CA 1D 0C           2729 	jp	z,00131$
                           2730 ;	r2tune.c 186
                           2731 ;	genCmpLt
                           2732 ;	AOP_STK for _dialtone_i_1_1
   0A22 F8 10              2733 	lda	hl,16(sp)
   0A24 7E                 2734 	ld	a,(hl)
   0A25 FE 0B              2735 	cp	#0x0B
   0A27 D2 5F 0A           2736 	jp	nc,00104$
                           2737 ;	r2tune.c 187
                           2738 ;	genPlus
                           2739 ;	AOP_STK for _dialtone_i_1_1
                           2740 ;	genPlusIncr
                           2741 ;	Can't optimise plus by inc, falling back to the normal way
   0A2A 7E                 2742 	ld	a,(hl)
   0A2B C6 06              2743 	add	a,#0x06
   0A2D 47                 2744 	ld	b,a
                           2745 ;	genIpush
                           2746 ; _saveRegsForCall: sendSetSize: 0 deInUse: 0 bcInUse: 1 deSending: 0
   0A2E C5                 2747 	push	bc
   0A2F 3E 0B              2748 	ld	a,#0x0B
   0A31 F5                 2749 	push	af
   0A32 33                 2750 	inc	sp
                           2751 ;	genIpush
   0A33 78                 2752 	ld	a,b
   0A34 F5                 2753 	push	af
   0A35 33                 2754 	inc	sp
                           2755 ;	genCall
   0A36 CD 00 00           2756 	call	__moduchar_rrx_s
   0A39 43                 2757 	ld	b,e
   0A3A E8 02              2758 	lda	sp,2(sp)
   0A3C E1                 2759 	pop	hl
   0A3D 4D                 2760 	ld	c,l
                           2761 ;	genAssign
                           2762 ;	(registers are the same)
                           2763 ;	r2tune.c 188
                           2764 ;	genPlus
                           2765 ;	AOP_STK for _dialtone_sloc1_1_0
                           2766 ;	AOP_STK for _dialtone_sloc0_1_0
                           2767 ;	Can't optimise plus by inc, falling back to the normal way
   0A3E F8 00              2768 	lda	hl,0(sp)
   0A40 5E                 2769 	ld	e,(hl)
   0A41 23                 2770 	inc	hl
   0A42 56                 2771 	ld	d,(hl)
   0A43 68                 2772 	ld	l,b
   0A44 26 00              2773 	ld	h,#0x00
   0A46 19                 2774 	add	hl,de
   0A47 7D                 2775 	ld	a,l
   0A48 54                 2776 	ld	d,h
   0A49 F8 02              2777 	lda	hl,2(sp)
                           2778 ;	genPointerGet
                           2779 ;	AOP_STK for _dialtone_sloc0_1_0
   0A4B 22                 2780 	ld	(hl+),a
   0A4C 72                 2781 	ld	(hl),d
   0A4D 5F                 2782 	ld	e,a
   0A4E 1A                 2783 	ld	a,(de)
   0A4F 47                 2784 	ld	b,a
                           2785 ;	genAssign
                           2786 ;	AOP_STK for _dialtone_sloc0_1_0
   0A50 2B                 2787 	dec	hl
   0A51 71                 2788 	ld	(hl),c
                           2789 ;	genCmpEq
                           2790 ;	AOP_STK for _dialtone_sloc0_1_0
                           2791 ; genCmpEq: left 1, right 1, result 0
   0A52 7E                 2792 	ld	a,(hl)
   0A53 B8                 2793 	cp	b
   0A54 C2 5F 0A           2794 	jp	nz,00104$
   0A57 18 03              2795 	jr	00160$
   0A59                    2796 00159$:
   0A59 C3 5F 0A           2797 	jp	00104$
   0A5C                    2798 00160$:
                           2799 ;	r2tune.c 189
                           2800 ;	genPlus
                           2801 ;	AOP_STK for _dialtone_count_1_1
                           2802 ;	genPlusIncr
   0A5C F8 04              2803 	lda	hl,4(sp)
   0A5E 34                 2804 	inc	(hl)
                           2805 ;	genLabel
   0A5F                    2806 00104$:
                           2807 ;	r2tune.c 193
                           2808 ;	genCmpEq
                           2809 ; genCmpEq: left 1, right 1, result 0
   0A5F 79                 2810 	ld	a,c
   0A60 FE 23              2811 	cp	a,#0x23
   0A62 CA B2 0B           2812 	jp	z,00122$
   0A65                    2813 00161$:
                           2814 ;	genCmpEq
                           2815 ; genCmpEq: left 1, right 1, result 0
   0A65 79                 2816 	ld	a,c
   0A66 FE 2A              2817 	cp	a,#0x2A
   0A68 CA 94 0B           2818 	jp	z,00120$
   0A6B                    2819 00162$:
                           2820 ;	genCmpEq
                           2821 ; genCmpEq: left 1, right 1, result 0
   0A6B 79                 2822 	ld	a,c
   0A6C FE 2C              2823 	cp	a,#0x2C
   0A6E CA D0 0B           2824 	jp	z,00125$
   0A71                    2825 00163$:
                           2826 ;	genCmpEq
                           2827 ; genCmpEq: left 1, right 1, result 0
   0A71 79                 2828 	ld	a,c
   0A72 FE 30              2829 	cp	a,#0x30
   0A74 CA A3 0B           2830 	jp	z,00121$
   0A77                    2831 00164$:
                           2832 ;	genCmpEq
                           2833 ; genCmpEq: left 1, right 1, result 0
   0A77 79                 2834 	ld	a,c
   0A78 FE 31              2835 	cp	a,#0x31
   0A7A CA E0 0A           2836 	jp	z,00105$
   0A7D                    2837 00165$:
                           2838 ;	genCmpEq
                           2839 ; genCmpEq: left 1, right 1, result 0
   0A7D 79                 2840 	ld	a,c
   0A7E FE 32              2841 	cp	a,#0x32
   0A80 CA EF 0A           2842 	jp	z,00106$
   0A83                    2843 00166$:
                           2844 ;	genCmpEq
                           2845 ; genCmpEq: left 1, right 1, result 0
   0A83 79                 2846 	ld	a,c
   0A84 FE 33              2847 	cp	a,#0x33
   0A86 CA FE 0A           2848 	jp	z,00107$
   0A89                    2849 00167$:
                           2850 ;	genCmpEq
                           2851 ; genCmpEq: left 1, right 1, result 0
   0A89 79                 2852 	ld	a,c
   0A8A FE 34              2853 	cp	a,#0x34
   0A8C CA 1C 0B           2854 	jp	z,00110$
   0A8F                    2855 00168$:
                           2856 ;	genCmpEq
                           2857 ; genCmpEq: left 1, right 1, result 0
   0A8F 79                 2858 	ld	a,c
   0A90 FE 35              2859 	cp	a,#0x35
   0A92 CA 2B 0B           2860 	jp	z,00111$
   0A95                    2861 00169$:
                           2862 ;	genCmpEq
                           2863 ; genCmpEq: left 1, right 1, result 0
   0A95 79                 2864 	ld	a,c
   0A96 FE 36              2865 	cp	a,#0x36
   0A98 CA 3A 0B           2866 	jp	z,00112$
   0A9B                    2867 00170$:
                           2868 ;	genCmpEq
                           2869 ; genCmpEq: left 1, right 1, result 0
   0A9B 79                 2870 	ld	a,c
   0A9C FE 37              2871 	cp	a,#0x37
   0A9E CA 58 0B           2872 	jp	z,00115$
   0AA1                    2873 00171$:
                           2874 ;	genCmpEq
                           2875 ; genCmpEq: left 1, right 1, result 0
   0AA1 79                 2876 	ld	a,c
   0AA2 FE 38              2877 	cp	a,#0x38
   0AA4 CA 67 0B           2878 	jp	z,00116$
   0AA7                    2879 00172$:
                           2880 ;	genCmpEq
                           2881 ; genCmpEq: left 1, right 1, result 0
   0AA7 79                 2882 	ld	a,c
   0AA8 FE 39              2883 	cp	a,#0x39
   0AAA CA 76 0B           2884 	jp	z,00117$
   0AAD                    2885 00173$:
                           2886 ;	genCmpEq
                           2887 ; genCmpEq: left 1, right 1, result 0
   0AAD 79                 2888 	ld	a,c
   0AAE FE 41              2889 	cp	a,#0x41
   0AB0 CA 0D 0B           2890 	jp	z,00108$
   0AB3                    2891 00174$:
                           2892 ;	genCmpEq
                           2893 ; genCmpEq: left 1, right 1, result 0
   0AB3 79                 2894 	ld	a,c
   0AB4 FE 42              2895 	cp	a,#0x42
   0AB6 CA 49 0B           2896 	jp	z,00113$
   0AB9                    2897 00175$:
                           2898 ;	genCmpEq
                           2899 ; genCmpEq: left 1, right 1, result 0
   0AB9 79                 2900 	ld	a,c
   0ABA FE 43              2901 	cp	a,#0x43
   0ABC CA 85 0B           2902 	jp	z,00118$
   0ABF                    2903 00176$:
                           2904 ;	genCmpEq
                           2905 ; genCmpEq: left 1, right 1, result 0
   0ABF 79                 2906 	ld	a,c
   0AC0 FE 44              2907 	cp	a,#0x44
   0AC2 CA C1 0B           2908 	jp	z,00123$
   0AC5                    2909 00177$:
                           2910 ;	genCmpEq
                           2911 ; genCmpEq: left 1, right 1, result 0
   0AC5 79                 2912 	ld	a,c
   0AC6 FE 61              2913 	cp	a,#0x61
   0AC8 CA 0D 0B           2914 	jp	z,00108$
   0ACB                    2915 00178$:
                           2916 ;	genCmpEq
                           2917 ; genCmpEq: left 1, right 1, result 0
   0ACB 79                 2918 	ld	a,c
   0ACC FE 62              2919 	cp	a,#0x62
   0ACE CA 49 0B           2920 	jp	z,00113$
   0AD1                    2921 00179$:
                           2922 ;	genCmpEq
                           2923 ; genCmpEq: left 1, right 1, result 0
   0AD1 79                 2924 	ld	a,c
   0AD2 FE 63              2925 	cp	a,#0x63
   0AD4 CA 85 0B           2926 	jp	z,00118$
   0AD7                    2927 00180$:
                           2928 ;	genCmpEq
                           2929 ; genCmpEq: left 1, right 1, result 0
   0AD7 79                 2930 	ld	a,c
   0AD8 FE 64              2931 	cp	a,#0x64
   0ADA CA C1 0B           2932 	jp	z,00123$
   0ADD                    2933 00181$:
                           2934 ;	genGoto
   0ADD C3 E6 0B           2935 	jp	00126$
                           2936 ;	r2tune.c 195
                           2937 ;	genLabel
   0AE0                    2938 00105$:
                           2939 ;	genAssign
   0AE0 01 13 FF           2940 	ld	bc,#0xFF13
                           2941 ;	genAssign (pointer)
   0AE3 3E 44              2942 	ld	a,#0x44
   0AE5 02                 2943 	ld	(bc),a
                           2944 ;	r2tune.c 196
                           2945 ;	genAssign
   0AE6 01 18 FF           2946 	ld	bc,#0xFF18
                           2947 ;	genAssign (pointer)
   0AE9 3E 94              2948 	ld	a,#0x94
   0AEB 02                 2949 	ld	(bc),a
                           2950 ;	r2tune.c 197
                           2951 ;	genGoto
   0AEC C3 EF 0B           2952 	jp	00127$
                           2953 ;	r2tune.c 199
                           2954 ;	genLabel
   0AEF                    2955 00106$:
                           2956 ;	genAssign
   0AEF 01 13 FF           2957 	ld	bc,#0xFF13
                           2958 ;	genAssign (pointer)
   0AF2 3E 44              2959 	ld	a,#0x44
   0AF4 02                 2960 	ld	(bc),a
                           2961 ;	r2tune.c 200
                           2962 ;	genAssign
   0AF5 01 18 FF           2963 	ld	bc,#0xFF18
                           2964 ;	genAssign (pointer)
   0AF8 3E 9E              2965 	ld	a,#0x9E
   0AFA 02                 2966 	ld	(bc),a
                           2967 ;	r2tune.c 201
                           2968 ;	genGoto
   0AFB C3 EF 0B           2969 	jp	00127$
                           2970 ;	r2tune.c 203
                           2971 ;	genLabel
   0AFE                    2972 00107$:
                           2973 ;	genAssign
   0AFE 01 13 FF           2974 	ld	bc,#0xFF13
                           2975 ;	genAssign (pointer)
   0B01 3E 44              2976 	ld	a,#0x44
   0B03 02                 2977 	ld	(bc),a
                           2978 ;	r2tune.c 204
                           2979 ;	genAssign
   0B04 01 18 FF           2980 	ld	bc,#0xFF18
                           2981 ;	genAssign (pointer)
   0B07 3E A7              2982 	ld	a,#0xA7
   0B09 02                 2983 	ld	(bc),a
                           2984 ;	r2tune.c 205
                           2985 ;	genGoto
   0B0A C3 EF 0B           2986 	jp	00127$
                           2987 ;	r2tune.c 208
                           2988 ;	genLabel
   0B0D                    2989 00108$:
                           2990 ;	genAssign
   0B0D 01 13 FF           2991 	ld	bc,#0xFF13
                           2992 ;	genAssign (pointer)
   0B10 3E 44              2993 	ld	a,#0x44
   0B12 02                 2994 	ld	(bc),a
                           2995 ;	r2tune.c 209
                           2996 ;	genAssign
   0B13 01 18 FF           2997 	ld	bc,#0xFF18
                           2998 ;	genAssign (pointer)
   0B16 3E B0              2999 	ld	a,#0xB0
   0B18 02                 3000 	ld	(bc),a
                           3001 ;	r2tune.c 210
                           3002 ;	genGoto
   0B19 C3 EF 0B           3003 	jp	00127$
                           3004 ;	r2tune.c 212
                           3005 ;	genLabel
   0B1C                    3006 00110$:
                           3007 ;	genAssign
   0B1C 01 13 FF           3008 	ld	bc,#0xFF13
                           3009 ;	genAssign (pointer)
   0B1F 3E 56              3010 	ld	a,#0x56
   0B21 02                 3011 	ld	(bc),a
                           3012 ;	r2tune.c 213
                           3013 ;	genAssign
   0B22 01 18 FF           3014 	ld	bc,#0xFF18
                           3015 ;	genAssign (pointer)
   0B25 3E 94              3016 	ld	a,#0x94
   0B27 02                 3017 	ld	(bc),a
                           3018 ;	r2tune.c 214
                           3019 ;	genGoto
   0B28 C3 EF 0B           3020 	jp	00127$
                           3021 ;	r2tune.c 216
                           3022 ;	genLabel
   0B2B                    3023 00111$:
                           3024 ;	genAssign
   0B2B 01 13 FF           3025 	ld	bc,#0xFF13
                           3026 ;	genAssign (pointer)
   0B2E 3E 56              3027 	ld	a,#0x56
   0B30 02                 3028 	ld	(bc),a
                           3029 ;	r2tune.c 217
                           3030 ;	genAssign
   0B31 01 18 FF           3031 	ld	bc,#0xFF18
                           3032 ;	genAssign (pointer)
   0B34 3E 9E              3033 	ld	a,#0x9E
   0B36 02                 3034 	ld	(bc),a
                           3035 ;	r2tune.c 218
                           3036 ;	genGoto
   0B37 C3 EF 0B           3037 	jp	00127$
                           3038 ;	r2tune.c 220
                           3039 ;	genLabel
   0B3A                    3040 00112$:
                           3041 ;	genAssign
   0B3A 01 13 FF           3042 	ld	bc,#0xFF13
                           3043 ;	genAssign (pointer)
   0B3D 3E 56              3044 	ld	a,#0x56
   0B3F 02                 3045 	ld	(bc),a
                           3046 ;	r2tune.c 221
                           3047 ;	genAssign
   0B40 01 18 FF           3048 	ld	bc,#0xFF18
                           3049 ;	genAssign (pointer)
   0B43 3E A7              3050 	ld	a,#0xA7
   0B45 02                 3051 	ld	(bc),a
                           3052 ;	r2tune.c 222
                           3053 ;	genGoto
   0B46 C3 EF 0B           3054 	jp	00127$
                           3055 ;	r2tune.c 225
                           3056 ;	genLabel
   0B49                    3057 00113$:
                           3058 ;	genAssign
   0B49 01 13 FF           3059 	ld	bc,#0xFF13
                           3060 ;	genAssign (pointer)
   0B4C 3E 56              3061 	ld	a,#0x56
   0B4E 02                 3062 	ld	(bc),a
                           3063 ;	r2tune.c 226
                           3064 ;	genAssign
   0B4F 01 18 FF           3065 	ld	bc,#0xFF18
                           3066 ;	genAssign (pointer)
   0B52 3E B0              3067 	ld	a,#0xB0
   0B54 02                 3068 	ld	(bc),a
                           3069 ;	r2tune.c 227
                           3070 ;	genGoto
   0B55 C3 EF 0B           3071 	jp	00127$
                           3072 ;	r2tune.c 229
                           3073 ;	genLabel
   0B58                    3074 00115$:
                           3075 ;	genAssign
   0B58 01 13 FF           3076 	ld	bc,#0xFF13
                           3077 ;	genAssign (pointer)
   0B5B 3E 66              3078 	ld	a,#0x66
   0B5D 02                 3079 	ld	(bc),a
                           3080 ;	r2tune.c 230
                           3081 ;	genAssign
   0B5E 01 18 FF           3082 	ld	bc,#0xFF18
                           3083 ;	genAssign (pointer)
   0B61 3E 94              3084 	ld	a,#0x94
   0B63 02                 3085 	ld	(bc),a
                           3086 ;	r2tune.c 231
                           3087 ;	genGoto
   0B64 C3 EF 0B           3088 	jp	00127$
                           3089 ;	r2tune.c 233
                           3090 ;	genLabel
   0B67                    3091 00116$:
                           3092 ;	genAssign
   0B67 01 13 FF           3093 	ld	bc,#0xFF13
                           3094 ;	genAssign (pointer)
   0B6A 3E 66              3095 	ld	a,#0x66
   0B6C 02                 3096 	ld	(bc),a
                           3097 ;	r2tune.c 234
                           3098 ;	genAssign
   0B6D 01 18 FF           3099 	ld	bc,#0xFF18
                           3100 ;	genAssign (pointer)
   0B70 3E 9E              3101 	ld	a,#0x9E
   0B72 02                 3102 	ld	(bc),a
                           3103 ;	r2tune.c 235
                           3104 ;	genGoto
   0B73 C3 EF 0B           3105 	jp	00127$
                           3106 ;	r2tune.c 237
                           3107 ;	genLabel
   0B76                    3108 00117$:
                           3109 ;	genAssign
   0B76 01 13 FF           3110 	ld	bc,#0xFF13
                           3111 ;	genAssign (pointer)
   0B79 3E 66              3112 	ld	a,#0x66
   0B7B 02                 3113 	ld	(bc),a
                           3114 ;	r2tune.c 238
                           3115 ;	genAssign
   0B7C 01 18 FF           3116 	ld	bc,#0xFF18
                           3117 ;	genAssign (pointer)
   0B7F 3E A7              3118 	ld	a,#0xA7
   0B81 02                 3119 	ld	(bc),a
                           3120 ;	r2tune.c 239
                           3121 ;	genGoto
   0B82 C3 EF 0B           3122 	jp	00127$
                           3123 ;	r2tune.c 242
                           3124 ;	genLabel
   0B85                    3125 00118$:
                           3126 ;	genAssign
   0B85 01 13 FF           3127 	ld	bc,#0xFF13
                           3128 ;	genAssign (pointer)
   0B88 3E 66              3129 	ld	a,#0x66
   0B8A 02                 3130 	ld	(bc),a
                           3131 ;	r2tune.c 243
                           3132 ;	genAssign
   0B8B 01 18 FF           3133 	ld	bc,#0xFF18
                           3134 ;	genAssign (pointer)
   0B8E 3E B0              3135 	ld	a,#0xB0
   0B90 02                 3136 	ld	(bc),a
                           3137 ;	r2tune.c 244
                           3138 ;	genGoto
   0B91 C3 EF 0B           3139 	jp	00127$
                           3140 ;	r2tune.c 246
                           3141 ;	genLabel
   0B94                    3142 00120$:
                           3143 ;	genAssign
   0B94 01 13 FF           3144 	ld	bc,#0xFF13
                           3145 ;	genAssign (pointer)
   0B97 3E 75              3146 	ld	a,#0x75
   0B99 02                 3147 	ld	(bc),a
                           3148 ;	r2tune.c 247
                           3149 ;	genAssign
   0B9A 01 18 FF           3150 	ld	bc,#0xFF18
                           3151 ;	genAssign (pointer)
   0B9D 3E 94              3152 	ld	a,#0x94
   0B9F 02                 3153 	ld	(bc),a
                           3154 ;	r2tune.c 248
                           3155 ;	genGoto
   0BA0 C3 EF 0B           3156 	jp	00127$
                           3157 ;	r2tune.c 250
                           3158 ;	genLabel
   0BA3                    3159 00121$:
                           3160 ;	genAssign
   0BA3 01 13 FF           3161 	ld	bc,#0xFF13
                           3162 ;	genAssign (pointer)
   0BA6 3E 75              3163 	ld	a,#0x75
   0BA8 02                 3164 	ld	(bc),a
                           3165 ;	r2tune.c 251
                           3166 ;	genAssign
   0BA9 01 18 FF           3167 	ld	bc,#0xFF18
                           3168 ;	genAssign (pointer)
   0BAC 3E 9E              3169 	ld	a,#0x9E
   0BAE 02                 3170 	ld	(bc),a
                           3171 ;	r2tune.c 252
                           3172 ;	genGoto
   0BAF C3 EF 0B           3173 	jp	00127$
                           3174 ;	r2tune.c 254
                           3175 ;	genLabel
   0BB2                    3176 00122$:
                           3177 ;	genAssign
   0BB2 01 13 FF           3178 	ld	bc,#0xFF13
                           3179 ;	genAssign (pointer)
   0BB5 3E 75              3180 	ld	a,#0x75
   0BB7 02                 3181 	ld	(bc),a
                           3182 ;	r2tune.c 255
                           3183 ;	genAssign
   0BB8 01 18 FF           3184 	ld	bc,#0xFF18
                           3185 ;	genAssign (pointer)
   0BBB 3E A7              3186 	ld	a,#0xA7
   0BBD 02                 3187 	ld	(bc),a
                           3188 ;	r2tune.c 256
                           3189 ;	genGoto
   0BBE C3 EF 0B           3190 	jp	00127$
                           3191 ;	r2tune.c 259
                           3192 ;	genLabel
   0BC1                    3193 00123$:
                           3194 ;	genAssign
   0BC1 01 13 FF           3195 	ld	bc,#0xFF13
                           3196 ;	genAssign (pointer)
   0BC4 3E 75              3197 	ld	a,#0x75
   0BC6 02                 3198 	ld	(bc),a
                           3199 ;	r2tune.c 260
                           3200 ;	genAssign
   0BC7 01 18 FF           3201 	ld	bc,#0xFF18
                           3202 ;	genAssign (pointer)
   0BCA 3E B0              3203 	ld	a,#0xB0
   0BCC 02                 3204 	ld	(bc),a
                           3205 ;	r2tune.c 261
                           3206 ;	genGoto
   0BCD C3 EF 0B           3207 	jp	00127$
                           3208 ;	r2tune.c 263
                           3209 ;	genLabel
   0BD0                    3210 00125$:
                           3211 ;	genIpush
                           3212 ; _saveRegsForCall: sendSetSize: 0 deInUse: 0 bcInUse: 0 deSending: 0
                           3213 ;	AOP_STK for 
   0BD0 F8 13              3214 	lda	hl,19(sp)
   0BD2 2A                 3215 	ld	a,(hl+)
   0BD3 66                 3216 	ld	h,(hl)
   0BD4 6F                 3217 	ld	l,a
   0BD5 E5                 3218 	push	hl
                           3219 ;	genCall
   0BD6 CD 00 00           3220 	call	_delay
   0BD9 E8 02              3221 	lda	sp,2(sp)
                           3222 ;	r2tune.c 264
                           3223 ;	genIpush
                           3224 ; _saveRegsForCall: sendSetSize: 0 deInUse: 0 bcInUse: 0 deSending: 0
                           3225 ;	AOP_STK for 
   0BDB F8 15              3226 	lda	hl,21(sp)
   0BDD 2A                 3227 	ld	a,(hl+)
   0BDE 66                 3228 	ld	h,(hl)
   0BDF 6F                 3229 	ld	l,a
   0BE0 E5                 3230 	push	hl
                           3231 ;	genCall
   0BE1 CD 00 00           3232 	call	_delay
   0BE4 E8 02              3233 	lda	sp,2(sp)
                           3234 ;	r2tune.c 267
                           3235 ;	genLabel
   0BE6                    3236 00126$:
                           3237 ;	genAssign
   0BE6 01 25 FF           3238 	ld	bc,#0xFF25
                           3239 ;	genAssign (pointer)
   0BE9 3E 00              3240 	ld	a,#0x00
   0BEB 02                 3241 	ld	(bc),a
                           3242 ;	r2tune.c 268
                           3243 ;	genGoto
   0BEC C3 17 0C           3244 	jp	00128$
                           3245 ;	r2tune.c 270
                           3246 ;	genLabel
   0BEF                    3247 00127$:
                           3248 ;	r2tune.c 271
                           3249 ;	genAssign
   0BEF 01 19 FF           3250 	ld	bc,#0xFF19
                           3251 ;	genAssign (pointer)
   0BF2 3E 87              3252 	ld	a,#0x87
   0BF4 02                 3253 	ld	(bc),a
                           3254 ;	r2tune.c 272
                           3255 ;	genAssign
   0BF5 01 25 FF           3256 	ld	bc,#0xFF25
                           3257 ;	genAssign (pointer)
   0BF8 3E 33              3258 	ld	a,#0x33
   0BFA 02                 3259 	ld	(bc),a
                           3260 ;	r2tune.c 273
                           3261 ;	genIpush
                           3262 ; _saveRegsForCall: sendSetSize: 0 deInUse: 0 bcInUse: 0 deSending: 0
                           3263 ;	AOP_STK for 
   0BFB F8 13              3264 	lda	hl,19(sp)
   0BFD 2A                 3265 	ld	a,(hl+)
   0BFE 66                 3266 	ld	h,(hl)
   0BFF 6F                 3267 	ld	l,a
   0C00 E5                 3268 	push	hl
                           3269 ;	genCall
   0C01 CD 00 00           3270 	call	_delay
   0C04 E8 02              3271 	lda	sp,2(sp)
                           3272 ;	r2tune.c 275
                           3273 ;	genAssign
   0C06 01 25 FF           3274 	ld	bc,#0xFF25
                           3275 ;	genAssign (pointer)
   0C09 3E 00              3276 	ld	a,#0x00
   0C0B 02                 3277 	ld	(bc),a
                           3278 ;	r2tune.c 276
                           3279 ;	genIpush
                           3280 ; _saveRegsForCall: sendSetSize: 0 deInUse: 0 bcInUse: 0 deSending: 0
                           3281 ;	AOP_STK for 
   0C0C F8 15              3282 	lda	hl,21(sp)
   0C0E 2A                 3283 	ld	a,(hl+)
   0C0F 66                 3284 	ld	h,(hl)
   0C10 6F                 3285 	ld	l,a
   0C11 E5                 3286 	push	hl
                           3287 ;	genCall
   0C12 CD 00 00           3288 	call	_delay
   0C15 E8 02              3289 	lda	sp,2(sp)
                           3290 ;	r2tune.c 278
                           3291 ;	genLabel
   0C17                    3292 00128$:
                           3293 ;	r2tune.c 279
                           3294 ;	genPlus
                           3295 ;	AOP_STK for _dialtone_i_1_1
                           3296 ;	genPlusIncr
   0C17 F8 10              3297 	lda	hl,16(sp)
   0C19 34                 3298 	inc	(hl)
                           3299 ;	genGoto
   0C1A C3 0C 0A           3300 	jp	00129$
                           3301 ;	genLabel
   0C1D                    3302 00131$:
                           3303 ;	r2tune.c 281
                           3304 ;	genIpush
                           3305 ; _saveRegsForCall: sendSetSize: 0 deInUse: 0 bcInUse: 0 deSending: 0
                           3306 ;	AOP_STK for _dialtone_count_1_1
   0C1D F8 04              3307 	lda	hl,4(sp)
   0C1F 7E                 3308 	ld	a,(hl)
   0C20 F5                 3309 	push	af
   0C21 33                 3310 	inc	sp
                           3311 ;	genCall
   0C22 CD DF 08           3312 	call	_check_win
   0C25 E8 01              3313 	lda	sp,1(sp)
                           3314 ;	genLabel
   0C27                    3315 00132$:
                           3316 ;	genEndFunction
   0C27 E8 11              3317 	lda	sp,17(sp)
   0C29 C9                 3318 	ret
   0C2A                    3319 ___dialtone_end:
                           3320 ;	r2tune.c 286
                           3321 ;	genLabel
                           3322 ;	genFunction
                           3323 ;	---------------------------------
                           3324 ; Function disp_lcd
                           3325 ; ---------------------------------
   0C2A                    3326 ___disp_lcd_start:
   0C2A                    3327 _disp_lcd:
   0C2A E8 F8              3328 	lda	sp,-8(sp)
                           3329 ;	r2tune.c 290
                           3330 ;	genAssign
                           3331 ;	AOP_STK for 
                           3332 ;	AOP_STK for _disp_lcd_j_1_1
   0C2C F8 0A              3333 	lda	hl,10(sp)
   0C2E 7E                 3334 	ld	a,(hl)
   0C2F F8 06              3335 	lda	hl,6(sp)
                           3336 ;	r2tune.c 292
                           3337 ;	genAssign
                           3338 ;	AOP_STK for _disp_lcd_i_1_1
   0C31 22                 3339 	ld	(hl+),a
   0C32 36 00              3340 	ld	(hl),#0x00
                           3341 ;	r2tune.c 293
                           3342 ;	genLabel
   0C34                    3343 00121$:
                           3344 ;	genPlus
                           3345 ;	AOP_STK for 
                           3346 ;	AOP_STK for _disp_lcd_i_1_1
                           3347 ;	AOP_STK for _disp_lcd_sloc0_1_0
                           3348 ;	Can't optimise plus by inc, falling back to the normal way
   0C34 F8 0B              3349 	lda	hl,11(sp)
   0C36 5E                 3350 	ld	e,(hl)
   0C37 23                 3351 	inc	hl
   0C38 56                 3352 	ld	d,(hl)
   0C39 F8 07              3353 	lda	hl,7(sp)
   0C3B 6E                 3354 	ld	l,(hl)
   0C3C 26 00              3355 	ld	h,#0x00
   0C3E 19                 3356 	add	hl,de
   0C3F 7D                 3357 	ld	a,l
   0C40 54                 3358 	ld	d,h
   0C41 F8 04              3359 	lda	hl,4(sp)
                           3360 ;	genPointerGet
                           3361 ;	AOP_STK for _disp_lcd_sloc0_1_0
   0C43 22                 3362 	ld	(hl+),a
   0C44 72                 3363 	ld	(hl),d
   0C45 5F                 3364 	ld	e,a
   0C46 1A                 3365 	ld	a,(de)
   0C47 4F                 3366 	ld	c,a
                           3367 ;	genIfx
   0C48 AF                 3368 	xor	a,a
   0C49 B1                 3369 	or	a,c
   0C4A CA 5C 0F           3370 	jp	z,00124$
                           3371 ;	r2tune.c 294
                           3372 ;	genCmpLt
   0C4D 79                 3373 	ld	a,c
   0C4E EE 80              3374 	xor	a,#0x80
   0C50 FE B0              3375 	cp	#0x30^0x80
   0C52 D2 5D 0C           3376 	jp	nc,00101$
                           3377 ;	genCmpGt
   0C55 79                 3378 	ld	a,c
   0C56 EE 80              3379 	xor	a,#0x80
   0C58 FE B9              3380 	cp	#0x39^0x80
   0C5A DA C6 0C           3381 	jp	c,00102$
                           3382 ;	genLabel
   0C5D                    3383 00101$:
                           3384 ;	r2tune.c 295
                           3385 ;	genPlus
                           3386 ;	AOP_STK for _disp_lcd_i_1_1
                           3387 ;	AOP_STK for _disp_lcd_sloc0_1_0
                           3388 ;	Can't optimise plus by inc, falling back to the normal way
   0C5D 11 00 00           3389 	ld	de,#_disp_tile
   0C60 F8 07              3390 	lda	hl,7(sp)
   0C62 6E                 3391 	ld	l,(hl)
   0C63 26 00              3392 	ld	h,#0x00
   0C65 19                 3393 	add	hl,de
   0C66 7D                 3394 	ld	a,l
   0C67 54                 3395 	ld	d,h
   0C68 F8 04              3396 	lda	hl,4(sp)
   0C6A 22                 3397 	ld	(hl+),a
   0C6B 72                 3398 	ld	(hl),d
                           3399 ;	genMinus
   0C6C 79                 3400 	ld	a,c
   0C6D C6 D0              3401 	add	a,#0xD0
   0C6F 47                 3402 	ld	b,a
                           3403 ;	genCast
                           3404 ;	AOP_STK for _disp_lcd_sloc1_1_0
   0C70 F8 02              3405 	lda	hl,2(sp)
   0C72 70                 3406 	ld	(hl),b
   0C73 78                 3407 	ld	a,b
   0C74 17                 3408 	rla	
   0C75 9F                 3409 	sbc	a,a
   0C76 23                 3410 	inc	hl
                           3411 ;	genLeftShift
                           3412 ;	AOP_STK for _disp_lcd_sloc1_1_0
                           3413 ;	AOP_STK for _disp_lcd_sloc2_1_0
   0C77 32                 3414 	ld      (hl-),a
   0C78 7E                 3415 	ld	a,(hl)
   0C79 2B                 3416 	dec	hl
   0C7A 2B                 3417 	dec	hl
   0C7B 77                 3418 	ld	(hl),a
   0C7C F8 03              3419 	lda	hl,3(sp)
   0C7E 7E                 3420 	ld	a,(hl)
   0C7F 2B                 3421 	dec	hl
   0C80 2B                 3422 	dec	hl
   0C81 32                 3423 	ld      (hl-),a
   0C82 CB 26              3424 	sla	(hl)
   0C84 23                 3425 	inc	hl
   0C85 CB 16              3426 	rl	(hl)
                           3427 ;	genPlus
                           3428 ;	AOP_STK for _disp_lcd_sloc2_1_0
                           3429 ;	AOP_STK for _disp_lcd_sloc1_1_0
                           3430 ;	genPlusIncr
                           3431 ;	Can't optimise plus by inc, falling back to the normal way
   0C87 2B                 3432 	dec	hl
   0C88 5E                 3433 	ld	e,(hl)
   0C89 23                 3434 	inc	hl
   0C8A 56                 3435 	ld	d,(hl)
   0C8B 21 1B 00           3436 	ld	hl,#0x001B
   0C8E 19                 3437 	add	hl,de
   0C8F 7D                 3438 	ld	a,l
   0C90 54                 3439 	ld	d,h
   0C91 F8 02              3440 	lda	hl,2(sp)
   0C93 22                 3441 	ld	(hl+),a
   0C94 72                 3442 	ld	(hl),d
                           3443 ;	genCast
                           3444 ;	AOP_STK for _disp_lcd_sloc1_1_0
   0C95 2B                 3445 	dec	hl
                           3446 ;	genAssign (pointer)
                           3447 ;	AOP_STK for _disp_lcd_sloc0_1_0
   0C96 2A                 3448 	ld	a,(hl+)
   0C97 23                 3449 	inc	hl
   0C98 5E                 3450 	ld	e,(hl)
   0C99 23                 3451 	inc	hl
   0C9A 56                 3452 	ld	d,(hl)
   0C9B 12                 3453 	ld	(de),a
                           3454 ;	r2tune.c 296
                           3455 ;	genPlus
                           3456 ;	AOP_STK for _disp_lcd_i_1_1
                           3457 ;	AOP_STK for _disp_lcd_j_1_1
                           3458 ;	Can't optimise plus by inc, falling back to the normal way
   0C9C 23                 3459 	inc	hl
   0C9D 23                 3460 	inc	hl
   0C9E 7E                 3461 	ld	a,(hl)
   0C9F 2B                 3462 	dec	hl
   0CA0 86                 3463 	add	a,(hl)
   0CA1 47                 3464 	ld	b,a
                           3465 ;	genPlus
                           3466 ;	AOP_STK for _disp_lcd_sloc1_1_0
                           3467 ;	Can't optimise plus by inc, falling back to the normal way
   0CA2 11 00 00           3468 	ld	de,#_disp_tile
   0CA5 68                 3469 	ld	l,b
   0CA6 26 00              3470 	ld	h,#0x00
   0CA8 19                 3471 	add	hl,de
   0CA9 7D                 3472 	ld	a,l
   0CAA 54                 3473 	ld	d,h
   0CAB F8 02              3474 	lda	hl,2(sp)
   0CAD 22                 3475 	ld	(hl+),a
   0CAE 72                 3476 	ld	(hl),d
                           3477 ;	genPlus
                           3478 ;	AOP_STK for _disp_lcd_sloc2_1_0
                           3479 ;	AOP_STK for _disp_lcd_sloc0_1_0
                           3480 ;	genPlusIncr
                           3481 ;	Can't optimise plus by inc, falling back to the normal way
   0CAF F8 00              3482 	lda	hl,0(sp)
   0CB1 5E                 3483 	ld	e,(hl)
   0CB2 23                 3484 	inc	hl
   0CB3 56                 3485 	ld	d,(hl)
   0CB4 21 1C 00           3486 	ld	hl,#0x001C
   0CB7 19                 3487 	add	hl,de
   0CB8 7D                 3488 	ld	a,l
   0CB9 54                 3489 	ld	d,h
   0CBA F8 04              3490 	lda	hl,4(sp)
   0CBC 22                 3491 	ld	(hl+),a
   0CBD 72                 3492 	ld	(hl),d
                           3493 ;	genCast
                           3494 ;	AOP_STK for _disp_lcd_sloc0_1_0
   0CBE 2B                 3495 	dec	hl
   0CBF 7E                 3496 	ld	a,(hl)
                           3497 ;	genAssign (pointer)
                           3498 ;	AOP_STK for _disp_lcd_sloc1_1_0
   0CC0 2B                 3499 	dec	hl
   0CC1 2B                 3500 	dec	hl
   0CC2 5E                 3501 	ld	e,(hl)
   0CC3 23                 3502 	inc	hl
   0CC4 56                 3503 	ld	d,(hl)
   0CC5 12                 3504 	ld	(de),a
                           3505 ;	genLabel
   0CC6                    3506 00102$:
                           3507 ;	r2tune.c 298
                           3508 ;	genCmpEq
                           3509 ; genCmpEq: left 1, right 1, result 0
   0CC6 79                 3510 	ld	a,c
   0CC7 FE 20              3511 	cp	a,#0x20
   0CC9 CA FB 0D           3512 	jp	z,00110$
   0CCC                    3513 00147$:
                           3514 ;	genCmpEq
                           3515 ; genCmpEq: left 1, right 1, result 0
   0CCC 79                 3516 	ld	a,c
   0CCD FE 23              3517 	cp	a,#0x23
   0CCF CA B5 0D           3518 	jp	z,00108$
   0CD2                    3519 00148$:
                           3520 ;	genCmpEq
                           3521 ; genCmpEq: left 1, right 1, result 0
   0CD2 79                 3522 	ld	a,c
   0CD3 FE 2A              3523 	cp	a,#0x2A
   0CD5 CA D8 0D           3524 	jp	z,00109$
   0CD8                    3525 00149$:
                           3526 ;	genCmpEq
                           3527 ; genCmpEq: left 1, right 1, result 0
   0CD8 79                 3528 	ld	a,c
   0CD9 FE 2C              3529 	cp	a,#0x2C
   0CDB CA F0 0E           3530 	jp	z,00117$
   0CDE                    3531 00150$:
                           3532 ;	genCmpEq
                           3533 ; genCmpEq: left 1, right 1, result 0
   0CDE 79                 3534 	ld	a,c
   0CDF FE 2D              3535 	cp	a,#0x2D
   0CE1 CA AA 0E           3536 	jp	z,00115$
   0CE4                    3537 00151$:
                           3538 ;	genCmpEq
                           3539 ; genCmpEq: left 1, right 1, result 0
   0CE4 79                 3540 	ld	a,c
   0CE5 FE 41              3541 	cp	a,#0x41
   0CE7 CA 29 0D           3542 	jp	z,00104$
   0CEA                    3543 00152$:
                           3544 ;	genCmpEq
                           3545 ; genCmpEq: left 1, right 1, result 0
   0CEA 79                 3546 	ld	a,c
   0CEB FE 42              3547 	cp	a,#0x42
   0CED CA 4C 0D           3548 	jp	z,00105$
   0CF0                    3549 00153$:
                           3550 ;	genCmpEq
                           3551 ; genCmpEq: left 1, right 1, result 0
   0CF0 79                 3552 	ld	a,c
   0CF1 FE 43              3553 	cp	a,#0x43
   0CF3 CA 6F 0D           3554 	jp	z,00106$
   0CF6                    3555 00154$:
                           3556 ;	genCmpEq
                           3557 ; genCmpEq: left 1, right 1, result 0
   0CF6 79                 3558 	ld	a,c
   0CF7 FE 44              3559 	cp	a,#0x44
   0CF9 CA 92 0D           3560 	jp	z,00107$
   0CFC                    3561 00155$:
                           3562 ;	genCmpEq
                           3563 ; genCmpEq: left 1, right 1, result 0
   0CFC 79                 3564 	ld	a,c
   0CFD FE 46              3565 	cp	a,#0x46
   0CFF CA 13 0F           3566 	jp	z,00118$
   0D02                    3567 00156$:
                           3568 ;	genCmpEq
                           3569 ; genCmpEq: left 1, right 1, result 0
   0D02 79                 3570 	ld	a,c
   0D03 FE 47              3571 	cp	a,#0x47
   0D05 CA 87 0E           3572 	jp	z,00114$
   0D08                    3573 00157$:
                           3574 ;	genCmpEq
                           3575 ; genCmpEq: left 1, right 1, result 0
   0D08 79                 3576 	ld	a,c
   0D09 FE 4D              3577 	cp	a,#0x4D
   0D0B CA 41 0E           3578 	jp	z,00112$
   0D0E                    3579 00158$:
                           3580 ;	genCmpEq
                           3581 ; genCmpEq: left 1, right 1, result 0
   0D0E 79                 3582 	ld	a,c
   0D0F FE 53              3583 	cp	a,#0x53
   0D11 CA 36 0F           3584 	jp	z,00119$
   0D14                    3585 00159$:
                           3586 ;	genCmpEq
                           3587 ; genCmpEq: left 1, right 1, result 0
   0D14 79                 3588 	ld	a,c
   0D15 FE 54              3589 	cp	a,#0x54
   0D17 CA CD 0E           3590 	jp	z,00116$
   0D1A                    3591 00160$:
                           3592 ;	genCmpEq
                           3593 ; genCmpEq: left 1, right 1, result 0
   0D1A 79                 3594 	ld	a,c
   0D1B FE 55              3595 	cp	a,#0x55
   0D1D CA 64 0E           3596 	jp	z,00113$
   0D20                    3597 00161$:
                           3598 ;	genCmpEq
                           3599 ; genCmpEq: left 1, right 1, result 0
   0D20 79                 3600 	ld	a,c
   0D21 FE 59              3601 	cp	a,#0x59
   0D23 CA 1E 0E           3602 	jp	z,00111$
   0D26                    3603 00162$:
                           3604 ;	genGoto
   0D26 C3 56 0F           3605 	jp	00120$
                           3606 ;	r2tune.c 300
                           3607 ;	genLabel
   0D29                    3608 00104$:
                           3609 ;	genPlus
                           3610 ;	AOP_STK for _disp_lcd_i_1_1
                           3611 ;	Can't optimise plus by inc, falling back to the normal way
   0D29 11 00 00           3612 	ld	de,#_disp_tile
   0D2C F8 07              3613 	lda	hl,7(sp)
   0D2E 6E                 3614 	ld	l,(hl)
   0D2F 26 00              3615 	ld	h,#0x00
   0D31 19                 3616 	add	hl,de
   0D32 4D                 3617 	ld	c,l
   0D33 44                 3618 	ld	b,h
                           3619 ;	genAssign (pointer)
   0D34 3E 2F              3620 	ld	a,#0x2F
   0D36 02                 3621 	ld	(bc),a
                           3622 ;	r2tune.c 301
                           3623 ;	genPlus
                           3624 ;	AOP_STK for _disp_lcd_i_1_1
                           3625 ;	AOP_STK for _disp_lcd_j_1_1
                           3626 ;	Can't optimise plus by inc, falling back to the normal way
   0D37 F8 07              3627 	lda	hl,7(sp)
   0D39 7E                 3628 	ld	a,(hl)
   0D3A 2B                 3629 	dec	hl
   0D3B 86                 3630 	add	a,(hl)
   0D3C 4F                 3631 	ld	c,a
                           3632 ;	genPlus
                           3633 ;	Can't optimise plus by inc, falling back to the normal way
   0D3D 3E 00              3634 	ld	a,#<_disp_tile
   0D3F 81                 3635 	add	a,c
   0D40 4F                 3636 	ld	c,a
   0D41 3E 00              3637 	ld	a,#>_disp_tile
   0D43 CE 00              3638 	adc	a,#0x00
   0D45 47                 3639 	ld	b,a
                           3640 ;	genAssign (pointer)
   0D46 3E 30              3641 	ld	a,#0x30
   0D48 02                 3642 	ld	(bc),a
                           3643 ;	r2tune.c 302
                           3644 ;	genGoto
   0D49 C3 56 0F           3645 	jp	00120$
                           3646 ;	r2tune.c 304
                           3647 ;	genLabel
   0D4C                    3648 00105$:
                           3649 ;	genPlus
                           3650 ;	AOP_STK for _disp_lcd_i_1_1
                           3651 ;	Can't optimise plus by inc, falling back to the normal way
   0D4C 11 00 00           3652 	ld	de,#_disp_tile
   0D4F F8 07              3653 	lda	hl,7(sp)
   0D51 6E                 3654 	ld	l,(hl)
   0D52 26 00              3655 	ld	h,#0x00
   0D54 19                 3656 	add	hl,de
   0D55 4D                 3657 	ld	c,l
   0D56 44                 3658 	ld	b,h
                           3659 ;	genAssign (pointer)
   0D57 3E 31              3660 	ld	a,#0x31
   0D59 02                 3661 	ld	(bc),a
                           3662 ;	r2tune.c 305
                           3663 ;	genPlus
                           3664 ;	AOP_STK for _disp_lcd_i_1_1
                           3665 ;	AOP_STK for _disp_lcd_j_1_1
                           3666 ;	Can't optimise plus by inc, falling back to the normal way
   0D5A F8 07              3667 	lda	hl,7(sp)
   0D5C 7E                 3668 	ld	a,(hl)
   0D5D 2B                 3669 	dec	hl
   0D5E 86                 3670 	add	a,(hl)
   0D5F 4F                 3671 	ld	c,a
                           3672 ;	genPlus
                           3673 ;	Can't optimise plus by inc, falling back to the normal way
   0D60 3E 00              3674 	ld	a,#<_disp_tile
   0D62 81                 3675 	add	a,c
   0D63 4F                 3676 	ld	c,a
   0D64 3E 00              3677 	ld	a,#>_disp_tile
   0D66 CE 00              3678 	adc	a,#0x00
   0D68 47                 3679 	ld	b,a
                           3680 ;	genAssign (pointer)
   0D69 3E 32              3681 	ld	a,#0x32
   0D6B 02                 3682 	ld	(bc),a
                           3683 ;	r2tune.c 306
                           3684 ;	genGoto
   0D6C C3 56 0F           3685 	jp	00120$
                           3686 ;	r2tune.c 308
                           3687 ;	genLabel
   0D6F                    3688 00106$:
                           3689 ;	genPlus
                           3690 ;	AOP_STK for _disp_lcd_i_1_1
                           3691 ;	Can't optimise plus by inc, falling back to the normal way
   0D6F 11 00 00           3692 	ld	de,#_disp_tile
   0D72 F8 07              3693 	lda	hl,7(sp)
   0D74 6E                 3694 	ld	l,(hl)
   0D75 26 00              3695 	ld	h,#0x00
   0D77 19                 3696 	add	hl,de
   0D78 4D                 3697 	ld	c,l
   0D79 44                 3698 	ld	b,h
                           3699 ;	genAssign (pointer)
   0D7A 3E 33              3700 	ld	a,#0x33
   0D7C 02                 3701 	ld	(bc),a
                           3702 ;	r2tune.c 309
                           3703 ;	genPlus
                           3704 ;	AOP_STK for _disp_lcd_i_1_1
                           3705 ;	AOP_STK for _disp_lcd_j_1_1
                           3706 ;	Can't optimise plus by inc, falling back to the normal way
   0D7D F8 07              3707 	lda	hl,7(sp)
   0D7F 7E                 3708 	ld	a,(hl)
   0D80 2B                 3709 	dec	hl
   0D81 86                 3710 	add	a,(hl)
   0D82 4F                 3711 	ld	c,a
                           3712 ;	genPlus
                           3713 ;	Can't optimise plus by inc, falling back to the normal way
   0D83 3E 00              3714 	ld	a,#<_disp_tile
   0D85 81                 3715 	add	a,c
   0D86 4F                 3716 	ld	c,a
   0D87 3E 00              3717 	ld	a,#>_disp_tile
   0D89 CE 00              3718 	adc	a,#0x00
   0D8B 47                 3719 	ld	b,a
                           3720 ;	genAssign (pointer)
   0D8C 3E 34              3721 	ld	a,#0x34
   0D8E 02                 3722 	ld	(bc),a
                           3723 ;	r2tune.c 310
                           3724 ;	genGoto
   0D8F C3 56 0F           3725 	jp	00120$
                           3726 ;	r2tune.c 312
                           3727 ;	genLabel
   0D92                    3728 00107$:
                           3729 ;	genPlus
                           3730 ;	AOP_STK for _disp_lcd_i_1_1
                           3731 ;	Can't optimise plus by inc, falling back to the normal way
   0D92 11 00 00           3732 	ld	de,#_disp_tile
   0D95 F8 07              3733 	lda	hl,7(sp)
   0D97 6E                 3734 	ld	l,(hl)
   0D98 26 00              3735 	ld	h,#0x00
   0D9A 19                 3736 	add	hl,de
   0D9B 4D                 3737 	ld	c,l
   0D9C 44                 3738 	ld	b,h
                           3739 ;	genAssign (pointer)
   0D9D 3E 35              3740 	ld	a,#0x35
   0D9F 02                 3741 	ld	(bc),a
                           3742 ;	r2tune.c 313
                           3743 ;	genPlus
                           3744 ;	AOP_STK for _disp_lcd_i_1_1
                           3745 ;	AOP_STK for _disp_lcd_j_1_1
                           3746 ;	Can't optimise plus by inc, falling back to the normal way
   0DA0 F8 07              3747 	lda	hl,7(sp)
   0DA2 7E                 3748 	ld	a,(hl)
   0DA3 2B                 3749 	dec	hl
   0DA4 86                 3750 	add	a,(hl)
   0DA5 4F                 3751 	ld	c,a
                           3752 ;	genPlus
                           3753 ;	Can't optimise plus by inc, falling back to the normal way
   0DA6 3E 00              3754 	ld	a,#<_disp_tile
   0DA8 81                 3755 	add	a,c
   0DA9 4F                 3756 	ld	c,a
   0DAA 3E 00              3757 	ld	a,#>_disp_tile
   0DAC CE 00              3758 	adc	a,#0x00
   0DAE 47                 3759 	ld	b,a
                           3760 ;	genAssign (pointer)
   0DAF 3E 36              3761 	ld	a,#0x36
   0DB1 02                 3762 	ld	(bc),a
                           3763 ;	r2tune.c 314
                           3764 ;	genGoto
   0DB2 C3 56 0F           3765 	jp	00120$
                           3766 ;	r2tune.c 316
                           3767 ;	genLabel
   0DB5                    3768 00108$:
                           3769 ;	genPlus
                           3770 ;	AOP_STK for _disp_lcd_i_1_1
                           3771 ;	Can't optimise plus by inc, falling back to the normal way
   0DB5 11 00 00           3772 	ld	de,#_disp_tile
   0DB8 F8 07              3773 	lda	hl,7(sp)
   0DBA 6E                 3774 	ld	l,(hl)
   0DBB 26 00              3775 	ld	h,#0x00
   0DBD 19                 3776 	add	hl,de
   0DBE 4D                 3777 	ld	c,l
   0DBF 44                 3778 	ld	b,h
                           3779 ;	genAssign (pointer)
   0DC0 3E 37              3780 	ld	a,#0x37
   0DC2 02                 3781 	ld	(bc),a
                           3782 ;	r2tune.c 317
                           3783 ;	genPlus
                           3784 ;	AOP_STK for _disp_lcd_i_1_1
                           3785 ;	AOP_STK for _disp_lcd_j_1_1
                           3786 ;	Can't optimise plus by inc, falling back to the normal way
   0DC3 F8 07              3787 	lda	hl,7(sp)
   0DC5 7E                 3788 	ld	a,(hl)
   0DC6 2B                 3789 	dec	hl
   0DC7 86                 3790 	add	a,(hl)
   0DC8 4F                 3791 	ld	c,a
                           3792 ;	genPlus
                           3793 ;	Can't optimise plus by inc, falling back to the normal way
   0DC9 3E 00              3794 	ld	a,#<_disp_tile
   0DCB 81                 3795 	add	a,c
   0DCC 4F                 3796 	ld	c,a
   0DCD 3E 00              3797 	ld	a,#>_disp_tile
   0DCF CE 00              3798 	adc	a,#0x00
   0DD1 47                 3799 	ld	b,a
                           3800 ;	genAssign (pointer)
   0DD2 3E 38              3801 	ld	a,#0x38
   0DD4 02                 3802 	ld	(bc),a
                           3803 ;	r2tune.c 318
                           3804 ;	genGoto
   0DD5 C3 56 0F           3805 	jp	00120$
                           3806 ;	r2tune.c 320
                           3807 ;	genLabel
   0DD8                    3808 00109$:
                           3809 ;	genPlus
                           3810 ;	AOP_STK for _disp_lcd_i_1_1
                           3811 ;	Can't optimise plus by inc, falling back to the normal way
   0DD8 11 00 00           3812 	ld	de,#_disp_tile
   0DDB F8 07              3813 	lda	hl,7(sp)
   0DDD 6E                 3814 	ld	l,(hl)
   0DDE 26 00              3815 	ld	h,#0x00
   0DE0 19                 3816 	add	hl,de
   0DE1 4D                 3817 	ld	c,l
   0DE2 44                 3818 	ld	b,h
                           3819 ;	genAssign (pointer)
   0DE3 3E 39              3820 	ld	a,#0x39
   0DE5 02                 3821 	ld	(bc),a
                           3822 ;	r2tune.c 321
                           3823 ;	genPlus
                           3824 ;	AOP_STK for _disp_lcd_i_1_1
                           3825 ;	AOP_STK for _disp_lcd_j_1_1
                           3826 ;	Can't optimise plus by inc, falling back to the normal way
   0DE6 F8 07              3827 	lda	hl,7(sp)
   0DE8 7E                 3828 	ld	a,(hl)
   0DE9 2B                 3829 	dec	hl
   0DEA 86                 3830 	add	a,(hl)
   0DEB 4F                 3831 	ld	c,a
                           3832 ;	genPlus
                           3833 ;	Can't optimise plus by inc, falling back to the normal way
   0DEC 3E 00              3834 	ld	a,#<_disp_tile
   0DEE 81                 3835 	add	a,c
   0DEF 4F                 3836 	ld	c,a
   0DF0 3E 00              3837 	ld	a,#>_disp_tile
   0DF2 CE 00              3838 	adc	a,#0x00
   0DF4 47                 3839 	ld	b,a
                           3840 ;	genAssign (pointer)
   0DF5 3E 3A              3841 	ld	a,#0x3A
   0DF7 02                 3842 	ld	(bc),a
                           3843 ;	r2tune.c 322
                           3844 ;	genGoto
   0DF8 C3 56 0F           3845 	jp	00120$
                           3846 ;	r2tune.c 324
                           3847 ;	genLabel
   0DFB                    3848 00110$:
                           3849 ;	genPlus
                           3850 ;	AOP_STK for _disp_lcd_i_1_1
                           3851 ;	Can't optimise plus by inc, falling back to the normal way
   0DFB 11 00 00           3852 	ld	de,#_disp_tile
   0DFE F8 07              3853 	lda	hl,7(sp)
   0E00 6E                 3854 	ld	l,(hl)
   0E01 26 00              3855 	ld	h,#0x00
   0E03 19                 3856 	add	hl,de
   0E04 4D                 3857 	ld	c,l
   0E05 44                 3858 	ld	b,h
                           3859 ;	genAssign (pointer)
   0E06 3E 3B              3860 	ld	a,#0x3B
   0E08 02                 3861 	ld	(bc),a
                           3862 ;	r2tune.c 325
                           3863 ;	genPlus
                           3864 ;	AOP_STK for _disp_lcd_i_1_1
                           3865 ;	AOP_STK for _disp_lcd_j_1_1
                           3866 ;	Can't optimise plus by inc, falling back to the normal way
   0E09 F8 07              3867 	lda	hl,7(sp)
   0E0B 7E                 3868 	ld	a,(hl)
   0E0C 2B                 3869 	dec	hl
   0E0D 86                 3870 	add	a,(hl)
   0E0E 4F                 3871 	ld	c,a
                           3872 ;	genPlus
                           3873 ;	Can't optimise plus by inc, falling back to the normal way
   0E0F 3E 00              3874 	ld	a,#<_disp_tile
   0E11 81                 3875 	add	a,c
   0E12 4F                 3876 	ld	c,a
   0E13 3E 00              3877 	ld	a,#>_disp_tile
   0E15 CE 00              3878 	adc	a,#0x00
   0E17 47                 3879 	ld	b,a
                           3880 ;	genAssign (pointer)
   0E18 3E 3C              3881 	ld	a,#0x3C
   0E1A 02                 3882 	ld	(bc),a
                           3883 ;	r2tune.c 326
                           3884 ;	genGoto
   0E1B C3 56 0F           3885 	jp	00120$
                           3886 ;	r2tune.c 328
                           3887 ;	genLabel
   0E1E                    3888 00111$:
                           3889 ;	genPlus
                           3890 ;	AOP_STK for _disp_lcd_i_1_1
                           3891 ;	Can't optimise plus by inc, falling back to the normal way
   0E1E 11 00 00           3892 	ld	de,#_disp_tile
   0E21 F8 07              3893 	lda	hl,7(sp)
   0E23 6E                 3894 	ld	l,(hl)
   0E24 26 00              3895 	ld	h,#0x00
   0E26 19                 3896 	add	hl,de
   0E27 4D                 3897 	ld	c,l
   0E28 44                 3898 	ld	b,h
                           3899 ;	genAssign (pointer)
   0E29 3E 3D              3900 	ld	a,#0x3D
   0E2B 02                 3901 	ld	(bc),a
                           3902 ;	r2tune.c 329
                           3903 ;	genPlus
                           3904 ;	AOP_STK for _disp_lcd_i_1_1
                           3905 ;	AOP_STK for _disp_lcd_j_1_1
                           3906 ;	Can't optimise plus by inc, falling back to the normal way
   0E2C F8 07              3907 	lda	hl,7(sp)
   0E2E 7E                 3908 	ld	a,(hl)
   0E2F 2B                 3909 	dec	hl
   0E30 86                 3910 	add	a,(hl)
   0E31 4F                 3911 	ld	c,a
                           3912 ;	genPlus
                           3913 ;	Can't optimise plus by inc, falling back to the normal way
   0E32 3E 00              3914 	ld	a,#<_disp_tile
   0E34 81                 3915 	add	a,c
   0E35 4F                 3916 	ld	c,a
   0E36 3E 00              3917 	ld	a,#>_disp_tile
   0E38 CE 00              3918 	adc	a,#0x00
   0E3A 47                 3919 	ld	b,a
                           3920 ;	genAssign (pointer)
   0E3B 3E 3E              3921 	ld	a,#0x3E
   0E3D 02                 3922 	ld	(bc),a
                           3923 ;	r2tune.c 330
                           3924 ;	genGoto
   0E3E C3 56 0F           3925 	jp	00120$
                           3926 ;	r2tune.c 332
                           3927 ;	genLabel
   0E41                    3928 00112$:
                           3929 ;	genPlus
                           3930 ;	AOP_STK for _disp_lcd_i_1_1
                           3931 ;	Can't optimise plus by inc, falling back to the normal way
   0E41 11 00 00           3932 	ld	de,#_disp_tile
   0E44 F8 07              3933 	lda	hl,7(sp)
   0E46 6E                 3934 	ld	l,(hl)
   0E47 26 00              3935 	ld	h,#0x00
   0E49 19                 3936 	add	hl,de
   0E4A 4D                 3937 	ld	c,l
   0E4B 44                 3938 	ld	b,h
                           3939 ;	genAssign (pointer)
   0E4C 3E 3F              3940 	ld	a,#0x3F
   0E4E 02                 3941 	ld	(bc),a
                           3942 ;	r2tune.c 333
                           3943 ;	genPlus
                           3944 ;	AOP_STK for _disp_lcd_i_1_1
                           3945 ;	AOP_STK for _disp_lcd_j_1_1
                           3946 ;	Can't optimise plus by inc, falling back to the normal way
   0E4F F8 07              3947 	lda	hl,7(sp)
   0E51 7E                 3948 	ld	a,(hl)
   0E52 2B                 3949 	dec	hl
   0E53 86                 3950 	add	a,(hl)
   0E54 4F                 3951 	ld	c,a
                           3952 ;	genPlus
                           3953 ;	Can't optimise plus by inc, falling back to the normal way
   0E55 3E 00              3954 	ld	a,#<_disp_tile
   0E57 81                 3955 	add	a,c
   0E58 4F                 3956 	ld	c,a
   0E59 3E 00              3957 	ld	a,#>_disp_tile
   0E5B CE 00              3958 	adc	a,#0x00
   0E5D 47                 3959 	ld	b,a
                           3960 ;	genAssign (pointer)
   0E5E 3E 40              3961 	ld	a,#0x40
   0E60 02                 3962 	ld	(bc),a
                           3963 ;	r2tune.c 334
                           3964 ;	genGoto
   0E61 C3 56 0F           3965 	jp	00120$
                           3966 ;	r2tune.c 336
                           3967 ;	genLabel
   0E64                    3968 00113$:
                           3969 ;	genPlus
                           3970 ;	AOP_STK for _disp_lcd_i_1_1
                           3971 ;	Can't optimise plus by inc, falling back to the normal way
   0E64 11 00 00           3972 	ld	de,#_disp_tile
   0E67 F8 07              3973 	lda	hl,7(sp)
   0E69 6E                 3974 	ld	l,(hl)
   0E6A 26 00              3975 	ld	h,#0x00
   0E6C 19                 3976 	add	hl,de
   0E6D 4D                 3977 	ld	c,l
   0E6E 44                 3978 	ld	b,h
                           3979 ;	genAssign (pointer)
   0E6F 3E 41              3980 	ld	a,#0x41
   0E71 02                 3981 	ld	(bc),a
                           3982 ;	r2tune.c 337
                           3983 ;	genPlus
                           3984 ;	AOP_STK for _disp_lcd_i_1_1
                           3985 ;	AOP_STK for _disp_lcd_j_1_1
                           3986 ;	Can't optimise plus by inc, falling back to the normal way
   0E72 F8 07              3987 	lda	hl,7(sp)
   0E74 7E                 3988 	ld	a,(hl)
   0E75 2B                 3989 	dec	hl
   0E76 86                 3990 	add	a,(hl)
   0E77 4F                 3991 	ld	c,a
                           3992 ;	genPlus
                           3993 ;	Can't optimise plus by inc, falling back to the normal way
   0E78 3E 00              3994 	ld	a,#<_disp_tile
   0E7A 81                 3995 	add	a,c
   0E7B 4F                 3996 	ld	c,a
   0E7C 3E 00              3997 	ld	a,#>_disp_tile
   0E7E CE 00              3998 	adc	a,#0x00
   0E80 47                 3999 	ld	b,a
                           4000 ;	genAssign (pointer)
   0E81 3E 42              4001 	ld	a,#0x42
   0E83 02                 4002 	ld	(bc),a
                           4003 ;	r2tune.c 338
                           4004 ;	genGoto
   0E84 C3 56 0F           4005 	jp	00120$
                           4006 ;	r2tune.c 340
                           4007 ;	genLabel
   0E87                    4008 00114$:
                           4009 ;	genPlus
                           4010 ;	AOP_STK for _disp_lcd_i_1_1
                           4011 ;	Can't optimise plus by inc, falling back to the normal way
   0E87 11 00 00           4012 	ld	de,#_disp_tile
   0E8A F8 07              4013 	lda	hl,7(sp)
   0E8C 6E                 4014 	ld	l,(hl)
   0E8D 26 00              4015 	ld	h,#0x00
   0E8F 19                 4016 	add	hl,de
   0E90 4D                 4017 	ld	c,l
   0E91 44                 4018 	ld	b,h
                           4019 ;	genAssign (pointer)
   0E92 3E 43              4020 	ld	a,#0x43
   0E94 02                 4021 	ld	(bc),a
                           4022 ;	r2tune.c 341
                           4023 ;	genPlus
                           4024 ;	AOP_STK for _disp_lcd_i_1_1
                           4025 ;	AOP_STK for _disp_lcd_j_1_1
                           4026 ;	Can't optimise plus by inc, falling back to the normal way
   0E95 F8 07              4027 	lda	hl,7(sp)
   0E97 7E                 4028 	ld	a,(hl)
   0E98 2B                 4029 	dec	hl
   0E99 86                 4030 	add	a,(hl)
   0E9A 4F                 4031 	ld	c,a
                           4032 ;	genPlus
                           4033 ;	Can't optimise plus by inc, falling back to the normal way
   0E9B 3E 00              4034 	ld	a,#<_disp_tile
   0E9D 81                 4035 	add	a,c
   0E9E 4F                 4036 	ld	c,a
   0E9F 3E 00              4037 	ld	a,#>_disp_tile
   0EA1 CE 00              4038 	adc	a,#0x00
   0EA3 47                 4039 	ld	b,a
                           4040 ;	genAssign (pointer)
   0EA4 3E 44              4041 	ld	a,#0x44
   0EA6 02                 4042 	ld	(bc),a
                           4043 ;	r2tune.c 342
                           4044 ;	genGoto
   0EA7 C3 56 0F           4045 	jp	00120$
                           4046 ;	r2tune.c 344
                           4047 ;	genLabel
   0EAA                    4048 00115$:
                           4049 ;	genPlus
                           4050 ;	AOP_STK for _disp_lcd_i_1_1
                           4051 ;	Can't optimise plus by inc, falling back to the normal way
   0EAA 11 00 00           4052 	ld	de,#_disp_tile
   0EAD F8 07              4053 	lda	hl,7(sp)
   0EAF 6E                 4054 	ld	l,(hl)
   0EB0 26 00              4055 	ld	h,#0x00
   0EB2 19                 4056 	add	hl,de
   0EB3 4D                 4057 	ld	c,l
   0EB4 44                 4058 	ld	b,h
                           4059 ;	genAssign (pointer)
   0EB5 3E 45              4060 	ld	a,#0x45
   0EB7 02                 4061 	ld	(bc),a
                           4062 ;	r2tune.c 345
                           4063 ;	genPlus
                           4064 ;	AOP_STK for _disp_lcd_i_1_1
                           4065 ;	AOP_STK for _disp_lcd_j_1_1
                           4066 ;	Can't optimise plus by inc, falling back to the normal way
   0EB8 F8 07              4067 	lda	hl,7(sp)
   0EBA 7E                 4068 	ld	a,(hl)
   0EBB 2B                 4069 	dec	hl
   0EBC 86                 4070 	add	a,(hl)
   0EBD 4F                 4071 	ld	c,a
                           4072 ;	genPlus
                           4073 ;	Can't optimise plus by inc, falling back to the normal way
   0EBE 3E 00              4074 	ld	a,#<_disp_tile
   0EC0 81                 4075 	add	a,c
   0EC1 4F                 4076 	ld	c,a
   0EC2 3E 00              4077 	ld	a,#>_disp_tile
   0EC4 CE 00              4078 	adc	a,#0x00
   0EC6 47                 4079 	ld	b,a
                           4080 ;	genAssign (pointer)
   0EC7 3E 46              4081 	ld	a,#0x46
   0EC9 02                 4082 	ld	(bc),a
                           4083 ;	r2tune.c 346
                           4084 ;	genGoto
   0ECA C3 56 0F           4085 	jp	00120$
                           4086 ;	r2tune.c 348
                           4087 ;	genLabel
   0ECD                    4088 00116$:
                           4089 ;	genPlus
                           4090 ;	AOP_STK for _disp_lcd_i_1_1
                           4091 ;	Can't optimise plus by inc, falling back to the normal way
   0ECD 11 00 00           4092 	ld	de,#_disp_tile
   0ED0 F8 07              4093 	lda	hl,7(sp)
   0ED2 6E                 4094 	ld	l,(hl)
   0ED3 26 00              4095 	ld	h,#0x00
   0ED5 19                 4096 	add	hl,de
   0ED6 4D                 4097 	ld	c,l
   0ED7 44                 4098 	ld	b,h
                           4099 ;	genAssign (pointer)
   0ED8 3E 47              4100 	ld	a,#0x47
   0EDA 02                 4101 	ld	(bc),a
                           4102 ;	r2tune.c 349
                           4103 ;	genPlus
                           4104 ;	AOP_STK for _disp_lcd_i_1_1
                           4105 ;	AOP_STK for _disp_lcd_j_1_1
                           4106 ;	Can't optimise plus by inc, falling back to the normal way
   0EDB F8 07              4107 	lda	hl,7(sp)
   0EDD 7E                 4108 	ld	a,(hl)
   0EDE 2B                 4109 	dec	hl
   0EDF 86                 4110 	add	a,(hl)
   0EE0 4F                 4111 	ld	c,a
                           4112 ;	genPlus
                           4113 ;	Can't optimise plus by inc, falling back to the normal way
   0EE1 3E 00              4114 	ld	a,#<_disp_tile
   0EE3 81                 4115 	add	a,c
   0EE4 4F                 4116 	ld	c,a
   0EE5 3E 00              4117 	ld	a,#>_disp_tile
   0EE7 CE 00              4118 	adc	a,#0x00
   0EE9 47                 4119 	ld	b,a
                           4120 ;	genAssign (pointer)
   0EEA 3E 48              4121 	ld	a,#0x48
   0EEC 02                 4122 	ld	(bc),a
                           4123 ;	r2tune.c 350
                           4124 ;	genGoto
   0EED C3 56 0F           4125 	jp	00120$
                           4126 ;	r2tune.c 352
                           4127 ;	genLabel
   0EF0                    4128 00117$:
                           4129 ;	genPlus
                           4130 ;	AOP_STK for _disp_lcd_i_1_1
                           4131 ;	Can't optimise plus by inc, falling back to the normal way
   0EF0 11 00 00           4132 	ld	de,#_disp_tile
   0EF3 F8 07              4133 	lda	hl,7(sp)
   0EF5 6E                 4134 	ld	l,(hl)
   0EF6 26 00              4135 	ld	h,#0x00
   0EF8 19                 4136 	add	hl,de
   0EF9 4D                 4137 	ld	c,l
   0EFA 44                 4138 	ld	b,h
                           4139 ;	genAssign (pointer)
   0EFB 3E 49              4140 	ld	a,#0x49
   0EFD 02                 4141 	ld	(bc),a
                           4142 ;	r2tune.c 353
                           4143 ;	genPlus
                           4144 ;	AOP_STK for _disp_lcd_i_1_1
                           4145 ;	AOP_STK for _disp_lcd_j_1_1
                           4146 ;	Can't optimise plus by inc, falling back to the normal way
   0EFE F8 07              4147 	lda	hl,7(sp)
   0F00 7E                 4148 	ld	a,(hl)
   0F01 2B                 4149 	dec	hl
   0F02 86                 4150 	add	a,(hl)
   0F03 4F                 4151 	ld	c,a
                           4152 ;	genPlus
                           4153 ;	Can't optimise plus by inc, falling back to the normal way
   0F04 3E 00              4154 	ld	a,#<_disp_tile
   0F06 81                 4155 	add	a,c
   0F07 4F                 4156 	ld	c,a
   0F08 3E 00              4157 	ld	a,#>_disp_tile
   0F0A CE 00              4158 	adc	a,#0x00
   0F0C 47                 4159 	ld	b,a
                           4160 ;	genAssign (pointer)
   0F0D 3E 4A              4161 	ld	a,#0x4A
   0F0F 02                 4162 	ld	(bc),a
                           4163 ;	r2tune.c 354
                           4164 ;	genGoto
   0F10 C3 56 0F           4165 	jp	00120$
                           4166 ;	r2tune.c 356
                           4167 ;	genLabel
   0F13                    4168 00118$:
                           4169 ;	genPlus
                           4170 ;	AOP_STK for _disp_lcd_i_1_1
                           4171 ;	Can't optimise plus by inc, falling back to the normal way
   0F13 11 00 00           4172 	ld	de,#_disp_tile
   0F16 F8 07              4173 	lda	hl,7(sp)
   0F18 6E                 4174 	ld	l,(hl)
   0F19 26 00              4175 	ld	h,#0x00
   0F1B 19                 4176 	add	hl,de
   0F1C 4D                 4177 	ld	c,l
   0F1D 44                 4178 	ld	b,h
                           4179 ;	genAssign (pointer)
   0F1E 3E 4B              4180 	ld	a,#0x4B
   0F20 02                 4181 	ld	(bc),a
                           4182 ;	r2tune.c 357
                           4183 ;	genPlus
                           4184 ;	AOP_STK for _disp_lcd_i_1_1
                           4185 ;	AOP_STK for _disp_lcd_j_1_1
                           4186 ;	Can't optimise plus by inc, falling back to the normal way
   0F21 F8 07              4187 	lda	hl,7(sp)
   0F23 7E                 4188 	ld	a,(hl)
   0F24 2B                 4189 	dec	hl
   0F25 86                 4190 	add	a,(hl)
   0F26 4F                 4191 	ld	c,a
                           4192 ;	genPlus
                           4193 ;	Can't optimise plus by inc, falling back to the normal way
   0F27 3E 00              4194 	ld	a,#<_disp_tile
   0F29 81                 4195 	add	a,c
   0F2A 4F                 4196 	ld	c,a
   0F2B 3E 00              4197 	ld	a,#>_disp_tile
   0F2D CE 00              4198 	adc	a,#0x00
   0F2F 47                 4199 	ld	b,a
                           4200 ;	genAssign (pointer)
   0F30 3E 4C              4201 	ld	a,#0x4C
   0F32 02                 4202 	ld	(bc),a
                           4203 ;	r2tune.c 358
                           4204 ;	genGoto
   0F33 C3 56 0F           4205 	jp	00120$
                           4206 ;	r2tune.c 360
                           4207 ;	genLabel
   0F36                    4208 00119$:
                           4209 ;	genPlus
                           4210 ;	AOP_STK for _disp_lcd_i_1_1
                           4211 ;	Can't optimise plus by inc, falling back to the normal way
   0F36 11 00 00           4212 	ld	de,#_disp_tile
   0F39 F8 07              4213 	lda	hl,7(sp)
   0F3B 6E                 4214 	ld	l,(hl)
   0F3C 26 00              4215 	ld	h,#0x00
   0F3E 19                 4216 	add	hl,de
   0F3F 4D                 4217 	ld	c,l
   0F40 44                 4218 	ld	b,h
                           4219 ;	genAssign (pointer)
   0F41 3E 25              4220 	ld	a,#0x25
   0F43 02                 4221 	ld	(bc),a
                           4222 ;	r2tune.c 361
                           4223 ;	genPlus
                           4224 ;	AOP_STK for _disp_lcd_i_1_1
                           4225 ;	AOP_STK for _disp_lcd_j_1_1
                           4226 ;	Can't optimise plus by inc, falling back to the normal way
   0F44 F8 07              4227 	lda	hl,7(sp)
   0F46 7E                 4228 	ld	a,(hl)
   0F47 2B                 4229 	dec	hl
   0F48 86                 4230 	add	a,(hl)
   0F49 4F                 4231 	ld	c,a
                           4232 ;	genPlus
                           4233 ;	Can't optimise plus by inc, falling back to the normal way
   0F4A 3E 00              4234 	ld	a,#<_disp_tile
   0F4C 81                 4235 	add	a,c
   0F4D 4F                 4236 	ld	c,a
   0F4E 3E 00              4237 	ld	a,#>_disp_tile
   0F50 CE 00              4238 	adc	a,#0x00
   0F52 47                 4239 	ld	b,a
                           4240 ;	genAssign (pointer)
   0F53 3E 26              4241 	ld	a,#0x26
   0F55 02                 4242 	ld	(bc),a
                           4243 ;	r2tune.c 363
                           4244 ;	genLabel
   0F56                    4245 00120$:
                           4246 ;	r2tune.c 364
                           4247 ;	genPlus
                           4248 ;	AOP_STK for _disp_lcd_i_1_1
                           4249 ;	genPlusIncr
   0F56 F8 07              4250 	lda	hl,7(sp)
   0F58 34                 4251 	inc	(hl)
                           4252 ;	genGoto
   0F59 C3 34 0C           4253 	jp	00121$
                           4254 ;	genLabel
   0F5C                    4255 00124$:
                           4256 ;	genEndFunction
   0F5C E8 08              4257 	lda	sp,8(sp)
   0F5E C9                 4258 	ret
   0F5F                    4259 ___disp_lcd_end:
                           4260 ;	r2tune.c 369
                           4261 ;	genLabel
                           4262 ;	genFunction
                           4263 ;	---------------------------------
                           4264 ; Function clr_disp
                           4265 ; ---------------------------------
   0F5F                    4266 ___clr_disp_start:
   0F5F                    4267 _clr_disp:
                           4268 	
                           4269 ;	r2tune.c 371
                           4270 ;	genIpush
                           4271 ; _saveRegsForCall: sendSetSize: 0 deInUse: 0 bcInUse: 0 deSending: 0
   0F5F 21 ED 01           4272 	ld	hl,#_dtmf_lcd
   0F62 E5                 4273 	push	hl
                           4274 ;	genIpush
   0F63 21 1B 32           4275 	ld	hl,#0x321B
   0F66 E5                 4276 	push	hl
                           4277 ;	genCall
   0F67 CD 00 00           4278 	call	_set_bkg_data
   0F6A E8 04              4279 	lda	sp,4(sp)
                           4280 ;	r2tune.c 372
                           4281 ;	genIpush
                           4282 ; _saveRegsForCall: sendSetSize: 0 deInUse: 0 bcInUse: 0 deSending: 0
   0F6C 21 A3 08           4283 	ld	hl,#_init_disp
   0F6F E5                 4284 	push	hl
                           4285 ;	genIpush
   0F70 21 12 02           4286 	ld	hl,#0x0212
   0F73 E5                 4287 	push	hl
                           4288 ;	genIpush
   0F74 21 01 02           4289 	ld	hl,#0x0201
   0F77 E5                 4290 	push	hl
                           4291 ;	genCall
   0F78 CD 00 00           4292 	call	_set_bkg_tiles
   0F7B E8 06              4293 	lda	sp,6(sp)
                           4294 ;	genLabel
   0F7D                    4295 00101$:
                           4296 ;	genEndFunction
                           4297 	
   0F7D C9                 4298 	ret
   0F7E                    4299 ___clr_disp_end:
                           4300 ;	r2tune.c 378
                           4301 ;	genLabel
                           4302 ;	genFunction
                           4303 ;	---------------------------------
                           4304 ; Function disp
                           4305 ; ---------------------------------
   0F7E                    4306 ___disp_start:
   0F7E                    4307 _disp:
   0F7E E8 DB              4308 	lda	sp,-37(sp)
                           4309 ;	r2tune.c 384
                           4310 ;	genCall
                           4311 ; _saveRegsForCall: sendSetSize: 0 deInUse: 0 bcInUse: 0 deSending: 0
   0F80 CD 5F 0F           4312 	call	_clr_disp
                           4313 ;	r2tune.c 386
                           4314 ;	genAssign
   0F83 0E 00              4315 	ld	c,#0x00
                           4316 ;	r2tune.c 387
                           4317 ;	genLabel
   0F85                    4318 00101$:
                           4319 ;	genPlus
                           4320 ;	AOP_STK for 
                           4321 ;	AOP_STK for _disp_sloc0_1_0
                           4322 ;	Can't optimise plus by inc, falling back to the normal way
   0F85 F8 27              4323 	lda	hl,39(sp)
   0F87 5E                 4324 	ld	e,(hl)
   0F88 23                 4325 	inc	hl
   0F89 56                 4326 	ld	d,(hl)
   0F8A 69                 4327 	ld	l,c
   0F8B 26 00              4328 	ld	h,#0x00
   0F8D 19                 4329 	add	hl,de
   0F8E 7D                 4330 	ld	a,l
   0F8F 54                 4331 	ld	d,h
   0F90 F8 02              4332 	lda	hl,2(sp)
                           4333 ;	genPointerGet
                           4334 ;	AOP_STK for _disp_sloc0_1_0
   0F92 22                 4335 	ld	(hl+),a
   0F93 72                 4336 	ld	(hl),d
   0F94 5F                 4337 	ld	e,a
   0F95 1A                 4338 	ld	a,(de)
                           4339 ;	genIfx
   0F96 B7                 4340 	or	a,a
   0F97 CA 9E 0F           4341 	jp	z,00103$
                           4342 ;	r2tune.c 388
                           4343 ;	genPlus
                           4344 ;	genPlusIncr
                           4345 ; Removed redundent load
   0F9A 0C                 4346 	inc	c
                           4347 ;	genGoto
   0F9B C3 85 0F           4348 	jp	00101$
                           4349 ;	genLabel
   0F9E                    4350 00103$:
                           4351 ;	r2tune.c 391
                           4352 ;	genCmpLt
   0F9E 79                 4353 	ld	a,c
   0F9F FE 12              4354 	cp	#0x12
   0FA1 DA AF 0F           4355 	jp	c,00105$
                           4356 ;	r2tune.c 392
                           4357 ;	genMinus
                           4358 ;	AOP_STK for _disp_start_ch_1_1
   0FA4 79                 4359 	ld	a,c
   0FA5 C6 EE              4360 	add	a,#0xEE
   0FA7 F8 23              4361 	lda	hl,35(sp)
                           4362 ;	r2tune.c 393
                           4363 ;	genAssign
                           4364 ;	AOP_STK for _disp_end_ch_1_1
   0FA9 32                 4365 	ld      (hl-),a
   0FAA 36 12              4366 	ld	(hl),#0x12
                           4367 ;	genGoto
   0FAC C3 B5 0F           4368 	jp	00106$
                           4369 ;	genLabel
   0FAF                    4370 00105$:
                           4371 ;	r2tune.c 396
                           4372 ;	genAssign
                           4373 ;	AOP_STK for _disp_start_ch_1_1
   0FAF F8 23              4374 	lda	hl,35(sp)
   0FB1 36 00              4375 	ld	(hl),#0x00
                           4376 ;	r2tune.c 397
                           4377 ;	genAssign
                           4378 ;	AOP_STK for _disp_end_ch_1_1
   0FB3 2B                 4379 	dec	hl
   0FB4 71                 4380 	ld	(hl),c
                           4381 ;	genLabel
   0FB5                    4382 00106$:
                           4383 ;	r2tune.c 399
                           4384 ;	genAssign
                           4385 ;	AOP_STK for _disp_i_1_1
   0FB5 F8 24              4386 	lda	hl,36(sp)
   0FB7 36 00              4387 	ld	(hl),#0x00
                           4388 ;	genLabel
   0FB9                    4389 00107$:
                           4390 ;	genCmpLt
                           4391 ;	AOP_STK for _disp_i_1_1
                           4392 ;	AOP_STK for _disp_end_ch_1_1
   0FB9 F8 24              4393 	lda	hl,36(sp)
   0FBB 7E                 4394 	ld	a,(hl)
   0FBC 2B                 4395 	dec	hl
   0FBD 2B                 4396 	dec	hl
   0FBE 96                 4397 	sub	a,(hl)
   0FBF D2 F4 0F           4398 	jp	nc,00110$
                           4399 ;	r2tune.c 400
                           4400 ;	genAddrOf
   0FC2 F8 04              4401 	lda	hl,4(sp)
   0FC4 45                 4402 	ld	b,l
   0FC5 4C                 4403 	ld	c,h
                           4404 ;	genPlus
                           4405 ;	AOP_STK for _disp_i_1_1
                           4406 ;	Can't optimise plus by inc, falling back to the normal way
   0FC6 58                 4407 	ld	e,b
   0FC7 51                 4408 	ld	d,c
   0FC8 F8 24              4409 	lda	hl,36(sp)
   0FCA 6E                 4410 	ld	l,(hl)
   0FCB 26 00              4411 	ld	h,#0x00
   0FCD 19                 4412 	add	hl,de
   0FCE 45                 4413 	ld	b,l
   0FCF 4C                 4414 	ld	c,h
                           4415 ;	genPlus
                           4416 ;	AOP_STK for _disp_i_1_1
                           4417 ;	AOP_STK for _disp_start_ch_1_1
                           4418 ;	AOP_STK for _disp_sloc0_1_0
                           4419 ;	Can't optimise plus by inc, falling back to the normal way
   0FD0 F8 24              4420 	lda	hl,36(sp)
   0FD2 7E                 4421 	ld	a,(hl)
   0FD3 2B                 4422 	dec	hl
   0FD4 86                 4423 	add	a,(hl)
   0FD5 F8 02              4424 	lda	hl,2(sp)
   0FD7 77                 4425 	ld	(hl),a
                           4426 ;	genPlus
                           4427 ;	AOP_STK for 
                           4428 ;	AOP_STK for _disp_sloc0_1_0
                           4429 ;	AOP_STK for _disp_sloc1_1_0
                           4430 ;	Can't optimise plus by inc, falling back to the normal way
   0FD8 F8 27              4431 	lda	hl,39(sp)
   0FDA 5E                 4432 	ld	e,(hl)
   0FDB 23                 4433 	inc	hl
   0FDC 56                 4434 	ld	d,(hl)
   0FDD F8 02              4435 	lda	hl,2(sp)
   0FDF 6E                 4436 	ld	l,(hl)
   0FE0 26 00              4437 	ld	h,#0x00
   0FE2 19                 4438 	add	hl,de
   0FE3 7D                 4439 	ld	a,l
   0FE4 54                 4440 	ld	d,h
   0FE5 F8 00              4441 	lda	hl,0(sp)
                           4442 ;	genPointerGet
                           4443 ;	AOP_STK for _disp_sloc1_1_0
   0FE7 22                 4444 	ld	(hl+),a
   0FE8 72                 4445 	ld	(hl),d
   0FE9 5F                 4446 	ld	e,a
   0FEA 1A                 4447 	ld	a,(de)
                           4448 ;	genAssign (pointer)
   0FEB 58                 4449 	ld	e,b
   0FEC 51                 4450 	ld	d,c
   0FED 12                 4451 	ld	(de),a
                           4452 ;	r2tune.c 399
                           4453 ;	genPlus
                           4454 ;	AOP_STK for _disp_i_1_1
                           4455 ;	genPlusIncr
   0FEE F8 24              4456 	lda	hl,36(sp)
   0FF0 34                 4457 	inc	(hl)
                           4458 ;	genGoto
   0FF1 C3 B9 0F           4459 	jp	00107$
                           4460 ;	genLabel
   0FF4                    4461 00110$:
                           4462 ;	r2tune.c 402
                           4463 ;	genAddrOf
   0FF4 F8 04              4464 	lda	hl,4(sp)
   0FF6 4D                 4465 	ld	c,l
   0FF7 44                 4466 	ld	b,h
                           4467 ;	genPlus
                           4468 ;	AOP_STK for _disp_end_ch_1_1
                           4469 ;	AOP_STK for _disp_sloc1_1_0
                           4470 ;	Can't optimise plus by inc, falling back to the normal way
   0FF8 F8 22              4471 	lda	hl,34(sp)
   0FFA 6E                 4472 	ld	l,(hl)
   0FFB 26 00              4473 	ld	h,#0x00
   0FFD 09                 4474 	add	hl,bc
   0FFE 7D                 4475 	ld	a,l
   0FFF 54                 4476 	ld	d,h
   1000 F8 00              4477 	lda	hl,0(sp)
   1002 22                 4478 	ld	(hl+),a
   1003 72                 4479 	ld	(hl),d
                           4480 ;	genAssign (pointer)
                           4481 ;	AOP_STK for _disp_sloc1_1_0
   1004 2B                 4482 	dec	hl
   1005 5E                 4483 	ld	e,(hl)
   1006 23                 4484 	inc	hl
   1007 56                 4485 	ld	d,(hl)
   1008 3E 00              4486 	ld	a,#0x00
   100A 12                 4487 	ld	(de),a
                           4488 ;	r2tune.c 404
                           4489 ;	genIpush
                           4490 ; _saveRegsForCall: sendSetSize: 0 deInUse: 0 bcInUse: 0 deSending: 0
   100B C5                 4491 	push	bc
                           4492 ;	genIpush
                           4493 ;	AOP_STK for _disp_end_ch_1_1
   100C F8 24              4494 	lda	hl,36(sp)
   100E 7E                 4495 	ld	a,(hl)
   100F F5                 4496 	push	af
   1010 33                 4497 	inc	sp
                           4498 ;	genCall
   1011 CD 2A 0C           4499 	call	_disp_lcd
   1014 E8 03              4500 	lda	sp,3(sp)
                           4501 ;	r2tune.c 406
                           4502 ;	genMinus
                           4503 ;	AOP_STK for _disp_end_ch_1_1
   1016 3E 13              4504 	ld	a,#0x13
   1018 F8 22              4505 	lda	hl,34(sp)
   101A 96                 4506 	sub	a,(hl)
   101B 4F                 4507 	ld	c,a
                           4508 ;	r2tune.c 407
                           4509 ;	genIpush
                           4510 ; _saveRegsForCall: sendSetSize: 0 deInUse: 0 bcInUse: 0 deSending: 0
   101C 21 00 00           4511 	ld	hl,#_disp_tile
   101F E5                 4512 	push	hl
                           4513 ;	genIpush
   1020 3E 02              4514 	ld	a,#0x02
   1022 F5                 4515 	push	af
   1023 33                 4516 	inc	sp
                           4517 ;	genIpush
                           4518 ;	AOP_STK for _disp_end_ch_1_1
   1024 F8 25              4519 	lda	hl,37(sp)
   1026 7E                 4520 	ld	a,(hl)
   1027 F5                 4521 	push	af
   1028 33                 4522 	inc	sp
                           4523 ;	genIpush
   1029 3E 02              4524 	ld	a,#0x02
   102B F5                 4525 	push	af
   102C 33                 4526 	inc	sp
                           4527 ;	genIpush
   102D 79                 4528 	ld	a,c
   102E F5                 4529 	push	af
   102F 33                 4530 	inc	sp
                           4531 ;	genCall
   1030 CD 00 00           4532 	call	_set_bkg_tiles
   1033 E8 06              4533 	lda	sp,6(sp)
                           4534 ;	genLabel
   1035                    4535 00111$:
                           4536 ;	genEndFunction
   1035 E8 25              4537 	lda	sp,37(sp)
   1037 C9                 4538 	ret
   1038                    4539 ___disp_end:
                           4540 ;	r2tune.c 410
                           4541 ;	genLabel
                           4542 ;	genFunction
                           4543 ;	---------------------------------
                           4544 ; Function press_button
                           4545 ; ---------------------------------
   1038                    4546 ___press_button_start:
   1038                    4547 _press_button:
   1038 E8 FC              4548 	lda	sp,-4(sp)
                           4549 ;	r2tune.c 412
                           4550 ;	genCmpGt
                           4551 ;	AOP_STK for 
   103A 3E 03              4552 	ld	a,#0x03
   103C F8 06              4553 	lda	hl,6(sp)
   103E 96                 4554 	sub	a,(hl)
   103F DA 89 10           4555 	jp	c,00102$
                           4556 ;	genCmpGt
                           4557 ;	AOP_STK for 
   1042 3E 03              4558 	ld	a,#0x03
   1044 23                 4559 	inc	hl
   1045 96                 4560 	sub	a,(hl)
   1046 DA 89 10           4561 	jp	c,00102$
                           4562 ;	r2tune.c 413
                           4563 ;	genMult
                           4564 ;	AOP_STK for 
   1049 5E                 4565 	ld	e,(hl)
   104A 16 00              4566 	ld	d,#0x00
   104C 6B                 4567 	ld	l,e
   104D 62                 4568 	ld	h,d
   104E 29                 4569 	add	hl,hl
   104F 19                 4570 	add	hl,de
   1050 4D                 4571 	ld	c,l
   1051 44                 4572 	ld	b,h
                           4573 ;	genPlus
                           4574 ;	genPlusIncr
   1052 03                 4575 	inc	bc
   1053 03                 4576 	inc	bc
   1054 03                 4577 	inc	bc
   1055 03                 4578 	inc	bc
   1056 03                 4579 	inc	bc
                           4580 ;	genCast
                           4581 ; Removed redundent load
                           4582 ;	genMult
                           4583 ;	AOP_STK for 
                           4584 ;	AOP_STK for _press_button_sloc0_1_0
   1057 F8 06              4585 	lda	hl,6(sp)
   1059 5E                 4586 	ld	e,(hl)
   105A 16 00              4587 	ld	d,#0x00
   105C 6B                 4588 	ld	l,e
   105D 62                 4589 	ld	h,d
   105E 29                 4590 	add	hl,hl
   105F 19                 4591 	add	hl,de
   1060 7D                 4592 	ld	a,l
   1061 54                 4593 	ld	d,h
   1062 F8 02              4594 	lda	hl,2(sp)
   1064 22                 4595 	ld	(hl+),a
   1065 72                 4596 	ld	(hl),d
                           4597 ;	genPlus
                           4598 ;	AOP_STK for _press_button_sloc0_1_0
                           4599 ;	AOP_STK for _press_button_sloc1_1_0
                           4600 ;	genPlusIncr
                           4601 ;	Can't optimise plus by inc, falling back to the normal way
   1066 2B                 4602 	dec	hl
   1067 5E                 4603 	ld	e,(hl)
   1068 23                 4604 	inc	hl
   1069 56                 4605 	ld	d,(hl)
   106A 21 01 00           4606 	ld	hl,#0x0001
   106D 19                 4607 	add	hl,de
   106E 7D                 4608 	ld	a,l
   106F 54                 4609 	ld	d,h
   1070 F8 00              4610 	lda	hl,0(sp)
   1072 22                 4611 	ld	(hl+),a
   1073 72                 4612 	ld	(hl),d
                           4613 ;	genCast
                           4614 ;	AOP_STK for _press_button_sloc1_1_0
   1074 2B                 4615 	dec	hl
   1075 46                 4616 	ld	b,(hl)
                           4617 ;	genIpush
                           4618 ; _saveRegsForCall: sendSetSize: 0 deInUse: 0 bcInUse: 0 deSending: 0
   1076 21 88 08           4619 	ld	hl,#_press_tile
   1079 E5                 4620 	push	hl
                           4621 ;	genIpush
   107A 21 03 03           4622 	ld	hl,#0x0303
   107D E5                 4623 	push	hl
                           4624 ;	genIpush
   107E 79                 4625 	ld	a,c
   107F F5                 4626 	push	af
   1080 33                 4627 	inc	sp
                           4628 ;	genIpush
   1081 78                 4629 	ld	a,b
   1082 F5                 4630 	push	af
   1083 33                 4631 	inc	sp
                           4632 ;	genCall
   1084 CD 00 00           4633 	call	_set_bkg_tiles
   1087 E8 06              4634 	lda	sp,6(sp)
                           4635 ;	genLabel
   1089                    4636 00102$:
                           4637 ;	r2tune.c 415
                           4638 ;	genCmpEq
                           4639 ;	AOP_STK for 
                           4640 ; genCmpEq: left 1, right 1, result 1
   1089 F8 06              4641 	lda	hl,6(sp)
   108B 7E                 4642 	ld	a,(hl)
   108C FE 04              4643 	cp	a,#0x04
   108E C2 95 10           4644 	jp	nz,00120$
   1091 3E 01              4645 	ld	a,#0x01
   1093 18 01              4646 	jr	00121$
   1095                    4647 00120$:
   1095 AF                 4648 	xor	a,a
   1096                    4649 00121$:
   1096 4F                 4650 	ld	c,a
                           4651 ;	genIfx
   1097 AF                 4652 	xor	a,a
   1098 B1                 4653 	or	a,c
   1099 C2 A9 10           4654 	jp	nz,00107$
                           4655 ;	genCmpEq
                           4656 ;	AOP_STK for 
                           4657 ; genCmpEq: left 1, right 1, result 0
   109C F8 06              4658 	lda	hl,6(sp)
   109E 7E                 4659 	ld	a,(hl)
   109F FE 05              4660 	cp	a,#0x05
   10A1 C2 08 11           4661 	jp	nz,00105$
   10A4 18 03              4662 	jr	00123$
   10A6                    4663 00122$:
   10A6 C3 08 11           4664 	jp	00105$
   10A9                    4665 00123$:
                           4666 ;	genLabel
   10A9                    4667 00107$:
                           4668 ;	genCmpGt
                           4669 ;	AOP_STK for 
   10A9 3E 02              4670 	ld	a,#0x02
   10AB F8 07              4671 	lda	hl,7(sp)
   10AD 96                 4672 	sub	a,(hl)
   10AE DA 08 11           4673 	jp	c,00105$
                           4674 ;	r2tune.c 416
                           4675 ;	genMult
                           4676 ;	AOP_STK for 
                           4677 ;	AOP_STK for _press_button_sloc1_1_0
   10B1 5E                 4678 	ld	e,(hl)
   10B2 16 00              4679 	ld	d,#0x00
   10B4 6B                 4680 	ld	l,e
   10B5 62                 4681 	ld	h,d
   10B6 29                 4682 	add	hl,hl
   10B7 19                 4683 	add	hl,de
   10B8 7D                 4684 	ld	a,l
   10B9 54                 4685 	ld	d,h
   10BA F8 00              4686 	lda	hl,0(sp)
   10BC 22                 4687 	ld	(hl+),a
   10BD 72                 4688 	ld	(hl),d
                           4689 ;	genPlus
                           4690 ;	AOP_STK for _press_button_sloc1_1_0
                           4691 ;	AOP_STK for _press_button_sloc0_1_0
                           4692 ;	genPlusIncr
                           4693 ;	Can't optimise plus by inc, falling back to the normal way
   10BE 2B                 4694 	dec	hl
   10BF 5E                 4695 	ld	e,(hl)
   10C0 23                 4696 	inc	hl
   10C1 56                 4697 	ld	d,(hl)
   10C2 21 05 00           4698 	ld	hl,#0x0005
   10C5 19                 4699 	add	hl,de
   10C6 7D                 4700 	ld	a,l
   10C7 54                 4701 	ld	d,h
   10C8 F8 02              4702 	lda	hl,2(sp)
   10CA 22                 4703 	ld	(hl+),a
   10CB 72                 4704 	ld	(hl),d
                           4705 ;	genCast
                           4706 ;	AOP_STK for _press_button_sloc0_1_0
   10CC 2B                 4707 	dec	hl
   10CD 46                 4708 	ld	b,(hl)
                           4709 ;	genMult
                           4710 ;	AOP_STK for 
                           4711 ;	AOP_STK for _press_button_sloc1_1_0
   10CE F8 06              4712 	lda	hl,6(sp)
   10D0 5E                 4713 	ld	e,(hl)
   10D1 16 00              4714 	ld	d,#0x00
   10D3 6B                 4715 	ld	l,e
   10D4 62                 4716 	ld	h,d
   10D5 29                 4717 	add	hl,hl
   10D6 19                 4718 	add	hl,de
   10D7 7D                 4719 	ld	a,l
   10D8 54                 4720 	ld	d,h
   10D9 F8 00              4721 	lda	hl,0(sp)
   10DB 22                 4722 	ld	(hl+),a
   10DC 72                 4723 	ld	(hl),d
                           4724 ;	genPlus
                           4725 ;	AOP_STK for _press_button_sloc1_1_0
                           4726 ;	AOP_STK for _press_button_sloc0_1_0
                           4727 ;	genPlusIncr
                           4728 ;	Can't optimise plus by inc, falling back to the normal way
   10DD 2B                 4729 	dec	hl
   10DE 5E                 4730 	ld	e,(hl)
   10DF 23                 4731 	inc	hl
   10E0 56                 4732 	ld	d,(hl)
   10E1 21 02 00           4733 	ld	hl,#0x0002
   10E4 19                 4734 	add	hl,de
   10E5 7D                 4735 	ld	a,l
   10E6 54                 4736 	ld	d,h
   10E7 F8 02              4737 	lda	hl,2(sp)
   10E9 22                 4738 	ld	(hl+),a
   10EA 72                 4739 	ld	(hl),d
                           4740 ;	genCast
                           4741 ;	AOP_STK for _press_button_sloc0_1_0
                           4742 ;	AOP_STK for _press_button_sloc1_1_0
   10EB 2B                 4743 	dec	hl
   10EC 7E                 4744 	ld	a,(hl)
   10ED 2B                 4745 	dec	hl
   10EE 2B                 4746 	dec	hl
   10EF 77                 4747 	ld	(hl),a
                           4748 ;	genIpush
                           4749 ; _saveRegsForCall: sendSetSize: 0 deInUse: 0 bcInUse: 1 deSending: 0
   10F0 C5                 4750 	push	bc
   10F1 21 88 08           4751 	ld	hl,#_press_tile
   10F4 E5                 4752 	push	hl
                           4753 ;	genIpush
   10F5 21 03 03           4754 	ld	hl,#0x0303
   10F8 E5                 4755 	push	hl
                           4756 ;	genIpush
   10F9 78                 4757 	ld	a,b
   10FA F5                 4758 	push	af
   10FB 33                 4759 	inc	sp
                           4760 ;	genIpush
                           4761 ;	AOP_STK for _press_button_sloc1_1_0
   10FC F8 07              4762 	lda	hl,7(sp)
   10FE 7E                 4763 	ld	a,(hl)
   10FF F5                 4764 	push	af
   1100 33                 4765 	inc	sp
                           4766 ;	genCall
   1101 CD 00 00           4767 	call	_set_bkg_tiles
   1104 E8 06              4768 	lda	sp,6(sp)
   1106 E1                 4769 	pop	hl
   1107 4D                 4770 	ld	c,l
                           4771 ;	genLabel
   1108                    4772 00105$:
                           4773 ;	r2tune.c 418
                           4774 ;	genIfx
   1108 AF                 4775 	xor	a,a
   1109 B1                 4776 	or	a,c
   110A C2 1A 11           4777 	jp	nz,00111$
                           4778 ;	genCmpEq
                           4779 ;	AOP_STK for 
                           4780 ; genCmpEq: left 1, right 1, result 0
   110D F8 06              4781 	lda	hl,6(sp)
   110F 7E                 4782 	ld	a,(hl)
   1110 FE 05              4783 	cp	a,#0x05
   1112 C2 38 11           4784 	jp	nz,00112$
   1115 18 03              4785 	jr	00125$
   1117                    4786 00124$:
   1117 C3 38 11           4787 	jp	00112$
   111A                    4788 00125$:
                           4789 ;	genLabel
   111A                    4790 00111$:
                           4791 ;	genCmpEq
                           4792 ;	AOP_STK for 
                           4793 ; genCmpEq: left 1, right 1, result 0
   111A F8 07              4794 	lda	hl,7(sp)
   111C 7E                 4795 	ld	a,(hl)
   111D FE 03              4796 	cp	a,#0x03
   111F C2 38 11           4797 	jp	nz,00112$
   1122 18 03              4798 	jr	00127$
   1124                    4799 00126$:
   1124 C3 38 11           4800 	jp	00112$
   1127                    4801 00127$:
                           4802 ;	r2tune.c 419
                           4803 ;	genIpush
                           4804 ; _saveRegsForCall: sendSetSize: 0 deInUse: 0 bcInUse: 0 deSending: 0
   1127 21 91 08           4805 	ld	hl,#_dialing_press
   112A E5                 4806 	push	hl
                           4807 ;	genIpush
   112B 21 06 03           4808 	ld	hl,#0x0306
   112E E5                 4809 	push	hl
                           4810 ;	genIpush
   112F 21 0E 0E           4811 	ld	hl,#0x0E0E
   1132 E5                 4812 	push	hl
                           4813 ;	genCall
   1133 CD 00 00           4814 	call	_set_bkg_tiles
   1136 E8 06              4815 	lda	sp,6(sp)
                           4816 ;	genLabel
   1138                    4817 00112$:
                           4818 ;	genEndFunction
   1138 E8 04              4819 	lda	sp,4(sp)
   113A C9                 4820 	ret
   113B                    4821 ___press_button_end:
                           4822 ;	r2tune.c 423
                           4823 ;	genLabel
                           4824 ;	genFunction
                           4825 ;	---------------------------------
                           4826 ; Function break_button
                           4827 ; ---------------------------------
   113B                    4828 ___break_button_start:
   113B                    4829 _break_button:
   113B E8 FC              4830 	lda	sp,-4(sp)
                           4831 ;	r2tune.c 425
                           4832 ;	genCmpGt
                           4833 ;	AOP_STK for 
   113D 3E 03              4834 	ld	a,#0x03
   113F F8 06              4835 	lda	hl,6(sp)
   1141 96                 4836 	sub	a,(hl)
   1142 DA 8C 11           4837 	jp	c,00102$
                           4838 ;	genCmpGt
                           4839 ;	AOP_STK for 
   1145 3E 03              4840 	ld	a,#0x03
   1147 23                 4841 	inc	hl
   1148 96                 4842 	sub	a,(hl)
   1149 DA 8C 11           4843 	jp	c,00102$
                           4844 ;	r2tune.c 426
                           4845 ;	genMult
                           4846 ;	AOP_STK for 
   114C 5E                 4847 	ld	e,(hl)
   114D 16 00              4848 	ld	d,#0x00
   114F 6B                 4849 	ld	l,e
   1150 62                 4850 	ld	h,d
   1151 29                 4851 	add	hl,hl
   1152 19                 4852 	add	hl,de
   1153 4D                 4853 	ld	c,l
   1154 44                 4854 	ld	b,h
                           4855 ;	genPlus
                           4856 ;	genPlusIncr
   1155 03                 4857 	inc	bc
   1156 03                 4858 	inc	bc
   1157 03                 4859 	inc	bc
   1158 03                 4860 	inc	bc
   1159 03                 4861 	inc	bc
                           4862 ;	genCast
                           4863 ; Removed redundent load
                           4864 ;	genMult
                           4865 ;	AOP_STK for 
                           4866 ;	AOP_STK for _break_button_sloc0_1_0
   115A F8 06              4867 	lda	hl,6(sp)
   115C 5E                 4868 	ld	e,(hl)
   115D 16 00              4869 	ld	d,#0x00
   115F 6B                 4870 	ld	l,e
   1160 62                 4871 	ld	h,d
   1161 29                 4872 	add	hl,hl
   1162 19                 4873 	add	hl,de
   1163 7D                 4874 	ld	a,l
   1164 54                 4875 	ld	d,h
   1165 F8 02              4876 	lda	hl,2(sp)
   1167 22                 4877 	ld	(hl+),a
   1168 72                 4878 	ld	(hl),d
                           4879 ;	genPlus
                           4880 ;	AOP_STK for _break_button_sloc0_1_0
                           4881 ;	AOP_STK for _break_button_sloc1_1_0
                           4882 ;	genPlusIncr
                           4883 ;	Can't optimise plus by inc, falling back to the normal way
   1169 2B                 4884 	dec	hl
   116A 5E                 4885 	ld	e,(hl)
   116B 23                 4886 	inc	hl
   116C 56                 4887 	ld	d,(hl)
   116D 21 01 00           4888 	ld	hl,#0x0001
   1170 19                 4889 	add	hl,de
   1171 7D                 4890 	ld	a,l
   1172 54                 4891 	ld	d,h
   1173 F8 00              4892 	lda	hl,0(sp)
   1175 22                 4893 	ld	(hl+),a
   1176 72                 4894 	ld	(hl),d
                           4895 ;	genCast
                           4896 ;	AOP_STK for _break_button_sloc1_1_0
   1177 2B                 4897 	dec	hl
   1178 46                 4898 	ld	b,(hl)
                           4899 ;	genIpush
                           4900 ; _saveRegsForCall: sendSetSize: 0 deInUse: 0 bcInUse: 0 deSending: 0
   1179 21 6D 08           4901 	ld	hl,#_break_tile
   117C E5                 4902 	push	hl
                           4903 ;	genIpush
   117D 21 03 03           4904 	ld	hl,#0x0303
   1180 E5                 4905 	push	hl
                           4906 ;	genIpush
   1181 79                 4907 	ld	a,c
   1182 F5                 4908 	push	af
   1183 33                 4909 	inc	sp
                           4910 ;	genIpush
   1184 78                 4911 	ld	a,b
   1185 F5                 4912 	push	af
   1186 33                 4913 	inc	sp
                           4914 ;	genCall
   1187 CD 00 00           4915 	call	_set_bkg_tiles
   118A E8 06              4916 	lda	sp,6(sp)
                           4917 ;	genLabel
   118C                    4918 00102$:
                           4919 ;	r2tune.c 428
                           4920 ;	genCmpEq
                           4921 ;	AOP_STK for 
                           4922 ; genCmpEq: left 1, right 1, result 1
   118C F8 06              4923 	lda	hl,6(sp)
   118E 7E                 4924 	ld	a,(hl)
   118F FE 04              4925 	cp	a,#0x04
   1191 C2 98 11           4926 	jp	nz,00120$
   1194 3E 01              4927 	ld	a,#0x01
   1196 18 01              4928 	jr	00121$
   1198                    4929 00120$:
   1198 AF                 4930 	xor	a,a
   1199                    4931 00121$:
   1199 4F                 4932 	ld	c,a
                           4933 ;	genIfx
   119A AF                 4934 	xor	a,a
   119B B1                 4935 	or	a,c
   119C C2 AC 11           4936 	jp	nz,00107$
                           4937 ;	genCmpEq
                           4938 ;	AOP_STK for 
                           4939 ; genCmpEq: left 1, right 1, result 0
   119F F8 06              4940 	lda	hl,6(sp)
   11A1 7E                 4941 	ld	a,(hl)
   11A2 FE 05              4942 	cp	a,#0x05
   11A4 C2 0B 12           4943 	jp	nz,00105$
   11A7 18 03              4944 	jr	00123$
   11A9                    4945 00122$:
   11A9 C3 0B 12           4946 	jp	00105$
   11AC                    4947 00123$:
                           4948 ;	genLabel
   11AC                    4949 00107$:
                           4950 ;	genCmpGt
                           4951 ;	AOP_STK for 
   11AC 3E 02              4952 	ld	a,#0x02
   11AE F8 07              4953 	lda	hl,7(sp)
   11B0 96                 4954 	sub	a,(hl)
   11B1 DA 0B 12           4955 	jp	c,00105$
                           4956 ;	r2tune.c 429
                           4957 ;	genMult
                           4958 ;	AOP_STK for 
                           4959 ;	AOP_STK for _break_button_sloc1_1_0
   11B4 5E                 4960 	ld	e,(hl)
   11B5 16 00              4961 	ld	d,#0x00
   11B7 6B                 4962 	ld	l,e
   11B8 62                 4963 	ld	h,d
   11B9 29                 4964 	add	hl,hl
   11BA 19                 4965 	add	hl,de
   11BB 7D                 4966 	ld	a,l
   11BC 54                 4967 	ld	d,h
   11BD F8 00              4968 	lda	hl,0(sp)
   11BF 22                 4969 	ld	(hl+),a
   11C0 72                 4970 	ld	(hl),d
                           4971 ;	genPlus
                           4972 ;	AOP_STK for _break_button_sloc1_1_0
                           4973 ;	AOP_STK for _break_button_sloc0_1_0
                           4974 ;	genPlusIncr
                           4975 ;	Can't optimise plus by inc, falling back to the normal way
   11C1 2B                 4976 	dec	hl
   11C2 5E                 4977 	ld	e,(hl)
   11C3 23                 4978 	inc	hl
   11C4 56                 4979 	ld	d,(hl)
   11C5 21 05 00           4980 	ld	hl,#0x0005
   11C8 19                 4981 	add	hl,de
   11C9 7D                 4982 	ld	a,l
   11CA 54                 4983 	ld	d,h
   11CB F8 02              4984 	lda	hl,2(sp)
   11CD 22                 4985 	ld	(hl+),a
   11CE 72                 4986 	ld	(hl),d
                           4987 ;	genCast
                           4988 ;	AOP_STK for _break_button_sloc0_1_0
   11CF 2B                 4989 	dec	hl
   11D0 46                 4990 	ld	b,(hl)
                           4991 ;	genMult
                           4992 ;	AOP_STK for 
                           4993 ;	AOP_STK for _break_button_sloc1_1_0
   11D1 F8 06              4994 	lda	hl,6(sp)
   11D3 5E                 4995 	ld	e,(hl)
   11D4 16 00              4996 	ld	d,#0x00
   11D6 6B                 4997 	ld	l,e
   11D7 62                 4998 	ld	h,d
   11D8 29                 4999 	add	hl,hl
   11D9 19                 5000 	add	hl,de
   11DA 7D                 5001 	ld	a,l
   11DB 54                 5002 	ld	d,h
   11DC F8 00              5003 	lda	hl,0(sp)
   11DE 22                 5004 	ld	(hl+),a
   11DF 72                 5005 	ld	(hl),d
                           5006 ;	genPlus
                           5007 ;	AOP_STK for _break_button_sloc1_1_0
                           5008 ;	AOP_STK for _break_button_sloc0_1_0
                           5009 ;	genPlusIncr
                           5010 ;	Can't optimise plus by inc, falling back to the normal way
   11E0 2B                 5011 	dec	hl
   11E1 5E                 5012 	ld	e,(hl)
   11E2 23                 5013 	inc	hl
   11E3 56                 5014 	ld	d,(hl)
   11E4 21 02 00           5015 	ld	hl,#0x0002
   11E7 19                 5016 	add	hl,de
   11E8 7D                 5017 	ld	a,l
   11E9 54                 5018 	ld	d,h
   11EA F8 02              5019 	lda	hl,2(sp)
   11EC 22                 5020 	ld	(hl+),a
   11ED 72                 5021 	ld	(hl),d
                           5022 ;	genCast
                           5023 ;	AOP_STK for _break_button_sloc0_1_0
                           5024 ;	AOP_STK for _break_button_sloc1_1_0
   11EE 2B                 5025 	dec	hl
   11EF 7E                 5026 	ld	a,(hl)
   11F0 2B                 5027 	dec	hl
   11F1 2B                 5028 	dec	hl
   11F2 77                 5029 	ld	(hl),a
                           5030 ;	genIpush
                           5031 ; _saveRegsForCall: sendSetSize: 0 deInUse: 0 bcInUse: 1 deSending: 0
   11F3 C5                 5032 	push	bc
   11F4 21 6D 08           5033 	ld	hl,#_break_tile
   11F7 E5                 5034 	push	hl
                           5035 ;	genIpush
   11F8 21 03 03           5036 	ld	hl,#0x0303
   11FB E5                 5037 	push	hl
                           5038 ;	genIpush
   11FC 78                 5039 	ld	a,b
   11FD F5                 5040 	push	af
   11FE 33                 5041 	inc	sp
                           5042 ;	genIpush
                           5043 ;	AOP_STK for _break_button_sloc1_1_0
   11FF F8 07              5044 	lda	hl,7(sp)
   1201 7E                 5045 	ld	a,(hl)
   1202 F5                 5046 	push	af
   1203 33                 5047 	inc	sp
                           5048 ;	genCall
   1204 CD 00 00           5049 	call	_set_bkg_tiles
   1207 E8 06              5050 	lda	sp,6(sp)
   1209 E1                 5051 	pop	hl
   120A 4D                 5052 	ld	c,l
                           5053 ;	genLabel
   120B                    5054 00105$:
                           5055 ;	r2tune.c 431
                           5056 ;	genIfx
   120B AF                 5057 	xor	a,a
   120C B1                 5058 	or	a,c
   120D C2 1D 12           5059 	jp	nz,00111$
                           5060 ;	genCmpEq
                           5061 ;	AOP_STK for 
                           5062 ; genCmpEq: left 1, right 1, result 0
   1210 F8 06              5063 	lda	hl,6(sp)
   1212 7E                 5064 	ld	a,(hl)
   1213 FE 05              5065 	cp	a,#0x05
   1215 C2 3B 12           5066 	jp	nz,00112$
   1218 18 03              5067 	jr	00125$
   121A                    5068 00124$:
   121A C3 3B 12           5069 	jp	00112$
   121D                    5070 00125$:
                           5071 ;	genLabel
   121D                    5072 00111$:
                           5073 ;	genCmpEq
                           5074 ;	AOP_STK for 
                           5075 ; genCmpEq: left 1, right 1, result 0
   121D F8 07              5076 	lda	hl,7(sp)
   121F 7E                 5077 	ld	a,(hl)
   1220 FE 03              5078 	cp	a,#0x03
   1222 C2 3B 12           5079 	jp	nz,00112$
   1225 18 03              5080 	jr	00127$
   1227                    5081 00126$:
   1227 C3 3B 12           5082 	jp	00112$
   122A                    5083 00127$:
                           5084 ;	r2tune.c 432
                           5085 ;	genIpush
                           5086 ; _saveRegsForCall: sendSetSize: 0 deInUse: 0 bcInUse: 0 deSending: 0
   122A 21 76 08           5087 	ld	hl,#_dialing_break
   122D E5                 5088 	push	hl
                           5089 ;	genIpush
   122E 21 06 03           5090 	ld	hl,#0x0306
   1231 E5                 5091 	push	hl
                           5092 ;	genIpush
   1232 21 0E 0E           5093 	ld	hl,#0x0E0E
   1235 E5                 5094 	push	hl
                           5095 ;	genCall
   1236 CD 00 00           5096 	call	_set_bkg_tiles
   1239 E8 06              5097 	lda	sp,6(sp)
                           5098 ;	genLabel
   123B                    5099 00112$:
                           5100 ;	genEndFunction
   123B E8 04              5101 	lda	sp,4(sp)
   123D C9                 5102 	ret
   123E                    5103 ___break_button_end:
                           5104 ;	r2tune.c 437
                           5105 ;	genLabel
                           5106 ;	genFunction
                           5107 ;	---------------------------------
                           5108 ; Function init_key
                           5109 ; ---------------------------------
   123E                    5110 ___init_key_start:
   123E                    5111 _init_key:
   123E E8 F9              5112 	lda	sp,-7(sp)
                           5113 ;	r2tune.c 442
                           5114 ;	genIpush
                           5115 ; _saveRegsForCall: sendSetSize: 0 deInUse: 0 bcInUse: 0 deSending: 0
   1240 21 0D 05           5116 	ld	hl,#_key_num
   1243 E5                 5117 	push	hl
                           5118 ;	genIpush
   1244 21 00 18           5119 	ld	hl,#0x1800
   1247 E5                 5120 	push	hl
                           5121 ;	genCall
   1248 CD 00 00           5122 	call	_set_sprite_data
   124B E8 04              5123 	lda	sp,4(sp)
                           5124 ;	r2tune.c 446
                           5125 ;	genAssign
                           5126 ;	AOP_STK for _init_key_i_1_1
   124D F8 04              5127 	lda	hl,4(sp)
   124F 36 01              5128 	ld	(hl),#0x01
                           5129 ;	genLabel
   1251                    5130 00101$:
                           5131 ;	genCmpGt
                           5132 ;	AOP_STK for _init_key_i_1_1
   1251 3E 03              5133 	ld	a,#0x03
   1253 F8 04              5134 	lda	hl,4(sp)
   1255 96                 5135 	sub	a,(hl)
   1256 DA 93 12           5136 	jp	c,00104$
                           5137 ;	r2tune.c 447
                           5138 ;	genMult
                           5139 ;	AOP_STK for _init_key_i_1_1
                           5140 ;	AOP_STK for _init_key_sloc0_1_0
   1259 5E                 5141 	ld	e,(hl)
   125A 16 00              5142 	ld	d,#0x00
   125C 6B                 5143 	ld	l,e
   125D 62                 5144 	ld	h,d
   125E 29                 5145 	add	hl,hl
   125F 19                 5146 	add	hl,de
   1260 29                 5147 	add	hl,hl
   1261 29                 5148 	add	hl,hl
   1262 29                 5149 	add	hl,hl
   1263 7D                 5150 	ld	a,l
   1264 54                 5151 	ld	d,h
   1265 F8 02              5152 	lda	hl,2(sp)
   1267 22                 5153 	ld	(hl+),a
   1268 72                 5154 	ld	(hl),d
                           5155 ;	genCast
                           5156 ;	AOP_STK for _init_key_sloc0_1_0
                           5157 ;	AOP_STK for _init_key_key_x_1_1
   1269 2B                 5158 	dec	hl
   126A 7E                 5159 	ld	a,(hl)
   126B F8 06              5160 	lda	hl,6(sp)
                           5161 ;	r2tune.c 448
                           5162 ;	genIpush
                           5163 ; _saveRegsForCall: sendSetSize: 0 deInUse: 0 bcInUse: 0 deSending: 0
                           5164 ;	AOP_STK for _init_key_i_1_1
   126D 32                 5165 	ld      (hl-),a
   126E 2B                 5166 	dec	hl
   126F 7E                 5167 	ld	a,(hl)
   1270 F5                 5168 	push	af
   1271 33                 5169 	inc	sp
                           5170 ;	genIpush
                           5171 ;	AOP_STK for _init_key_i_1_1
   1272 7E                 5172 	ld	a,(hl)
   1273 F5                 5173 	push	af
   1274 33                 5174 	inc	sp
                           5175 ;	genCall
   1275 CD 00 00           5176 	call	_set_sprite_tile
   1278 E8 02              5177 	lda	sp,2(sp)
                           5178 ;	r2tune.c 449
                           5179 ;	genIpush
                           5180 ; _saveRegsForCall: sendSetSize: 0 deInUse: 0 bcInUse: 0 deSending: 0
   127A 3E 40              5181 	ld	a,#0x40
   127C F5                 5182 	push	af
   127D 33                 5183 	inc	sp
                           5184 ;	genIpush
                           5185 ;	AOP_STK for _init_key_key_x_1_1
   127E F8 07              5186 	lda	hl,7(sp)
   1280 7E                 5187 	ld	a,(hl)
   1281 F5                 5188 	push	af
   1282 33                 5189 	inc	sp
                           5190 ;	genIpush
                           5191 ;	AOP_STK for _init_key_i_1_1
   1283 2B                 5192 	dec	hl
   1284 2B                 5193 	dec	hl
   1285 7E                 5194 	ld	a,(hl)
   1286 F5                 5195 	push	af
   1287 33                 5196 	inc	sp
                           5197 ;	genCall
   1288 CD 00 00           5198 	call	_move_sprite
   128B E8 03              5199 	lda	sp,3(sp)
                           5200 ;	r2tune.c 446
                           5201 ;	genPlus
                           5202 ;	AOP_STK for _init_key_i_1_1
                           5203 ;	genPlusIncr
   128D F8 04              5204 	lda	hl,4(sp)
   128F 34                 5205 	inc	(hl)
                           5206 ;	genGoto
   1290 C3 51 12           5207 	jp	00101$
                           5208 ;	genLabel
   1293                    5209 00104$:
                           5210 ;	r2tune.c 454
                           5211 ;	genAssign
                           5212 ;	AOP_STK for _init_key_i_1_1
   1293 F8 04              5213 	lda	hl,4(sp)
   1295 36 04              5214 	ld	(hl),#0x04
                           5215 ;	genLabel
   1297                    5216 00105$:
                           5217 ;	genCmpGt
                           5218 ;	AOP_STK for _init_key_i_1_1
   1297 3E 06              5219 	ld	a,#0x06
   1299 F8 04              5220 	lda	hl,4(sp)
   129B 96                 5221 	sub	a,(hl)
   129C DA D8 12           5222 	jp	c,00108$
                           5223 ;	r2tune.c 455
                           5224 ;	genMinus
                           5225 ;	AOP_STK for _init_key_i_1_1
   129F 7E                 5226 	ld	a,(hl)
   12A0 C6 FD              5227 	add	a,#0xFD
   12A2 47                 5228 	ld	b,a
                           5229 ;	genMult
   12A3 58                 5230 	ld	e,b
   12A4 16 00              5231 	ld	d,#0x00
   12A6 6B                 5232 	ld	l,e
   12A7 62                 5233 	ld	h,d
   12A8 29                 5234 	add	hl,hl
   12A9 19                 5235 	add	hl,de
   12AA 29                 5236 	add	hl,hl
   12AB 29                 5237 	add	hl,hl
   12AC 29                 5238 	add	hl,hl
   12AD 45                 5239 	ld	b,l
   12AE 4C                 5240 	ld	c,h
                           5241 ;	genCast
                           5242 ;	AOP_STK for _init_key_key_x_1_1
   12AF F8 06              5243 	lda	hl,6(sp)
   12B1 70                 5244 	ld	(hl),b
                           5245 ;	r2tune.c 456
                           5246 ;	genIpush
                           5247 ; _saveRegsForCall: sendSetSize: 0 deInUse: 0 bcInUse: 0 deSending: 0
                           5248 ;	AOP_STK for _init_key_i_1_1
   12B2 2B                 5249 	dec	hl
   12B3 2B                 5250 	dec	hl
   12B4 7E                 5251 	ld	a,(hl)
   12B5 F5                 5252 	push	af
   12B6 33                 5253 	inc	sp
                           5254 ;	genIpush
                           5255 ;	AOP_STK for _init_key_i_1_1
   12B7 7E                 5256 	ld	a,(hl)
   12B8 F5                 5257 	push	af
   12B9 33                 5258 	inc	sp
                           5259 ;	genCall
   12BA CD 00 00           5260 	call	_set_sprite_tile
   12BD E8 02              5261 	lda	sp,2(sp)
                           5262 ;	r2tune.c 457
                           5263 ;	genIpush
                           5264 ; _saveRegsForCall: sendSetSize: 0 deInUse: 0 bcInUse: 0 deSending: 0
   12BF 3E 58              5265 	ld	a,#0x58
   12C1 F5                 5266 	push	af
   12C2 33                 5267 	inc	sp
                           5268 ;	genIpush
                           5269 ;	AOP_STK for _init_key_key_x_1_1
   12C3 F8 07              5270 	lda	hl,7(sp)
   12C5 7E                 5271 	ld	a,(hl)
   12C6 F5                 5272 	push	af
   12C7 33                 5273 	inc	sp
                           5274 ;	genIpush
                           5275 ;	AOP_STK for _init_key_i_1_1
   12C8 2B                 5276 	dec	hl
   12C9 2B                 5277 	dec	hl
   12CA 7E                 5278 	ld	a,(hl)
   12CB F5                 5279 	push	af
   12CC 33                 5280 	inc	sp
                           5281 ;	genCall
   12CD CD 00 00           5282 	call	_move_sprite
   12D0 E8 03              5283 	lda	sp,3(sp)
                           5284 ;	r2tune.c 454
                           5285 ;	genPlus
                           5286 ;	AOP_STK for _init_key_i_1_1
                           5287 ;	genPlusIncr
   12D2 F8 04              5288 	lda	hl,4(sp)
   12D4 34                 5289 	inc	(hl)
                           5290 ;	genGoto
   12D5 C3 97 12           5291 	jp	00105$
                           5292 ;	genLabel
   12D8                    5293 00108$:
                           5294 ;	r2tune.c 462
                           5295 ;	genAssign
                           5296 ;	AOP_STK for _init_key_i_1_1
   12D8 F8 04              5297 	lda	hl,4(sp)
   12DA 36 07              5298 	ld	(hl),#0x07
                           5299 ;	genLabel
   12DC                    5300 00109$:
                           5301 ;	genCmpGt
                           5302 ;	AOP_STK for _init_key_i_1_1
   12DC 3E 09              5303 	ld	a,#0x09
   12DE F8 04              5304 	lda	hl,4(sp)
   12E0 96                 5305 	sub	a,(hl)
   12E1 DA 1D 13           5306 	jp	c,00112$
                           5307 ;	r2tune.c 463
                           5308 ;	genMinus
                           5309 ;	AOP_STK for _init_key_i_1_1
   12E4 7E                 5310 	ld	a,(hl)
   12E5 C6 FA              5311 	add	a,#0xFA
   12E7 4F                 5312 	ld	c,a
                           5313 ;	genMult
   12E8 59                 5314 	ld	e,c
   12E9 16 00              5315 	ld	d,#0x00
   12EB 6B                 5316 	ld	l,e
   12EC 62                 5317 	ld	h,d
   12ED 29                 5318 	add	hl,hl
   12EE 19                 5319 	add	hl,de
   12EF 29                 5320 	add	hl,hl
   12F0 29                 5321 	add	hl,hl
   12F1 29                 5322 	add	hl,hl
   12F2 4D                 5323 	ld	c,l
   12F3 44                 5324 	ld	b,h
                           5325 ;	genCast
                           5326 ;	AOP_STK for _init_key_key_x_1_1
   12F4 F8 06              5327 	lda	hl,6(sp)
   12F6 71                 5328 	ld	(hl),c
                           5329 ;	r2tune.c 464
                           5330 ;	genIpush
                           5331 ; _saveRegsForCall: sendSetSize: 0 deInUse: 0 bcInUse: 0 deSending: 0
                           5332 ;	AOP_STK for _init_key_i_1_1
   12F7 2B                 5333 	dec	hl
   12F8 2B                 5334 	dec	hl
   12F9 7E                 5335 	ld	a,(hl)
   12FA F5                 5336 	push	af
   12FB 33                 5337 	inc	sp
                           5338 ;	genIpush
                           5339 ;	AOP_STK for _init_key_i_1_1
   12FC 7E                 5340 	ld	a,(hl)
   12FD F5                 5341 	push	af
   12FE 33                 5342 	inc	sp
                           5343 ;	genCall
   12FF CD 00 00           5344 	call	_set_sprite_tile
   1302 E8 02              5345 	lda	sp,2(sp)
                           5346 ;	r2tune.c 465
                           5347 ;	genIpush
                           5348 ; _saveRegsForCall: sendSetSize: 0 deInUse: 0 bcInUse: 0 deSending: 0
   1304 3E 70              5349 	ld	a,#0x70
   1306 F5                 5350 	push	af
   1307 33                 5351 	inc	sp
                           5352 ;	genIpush
                           5353 ;	AOP_STK for _init_key_key_x_1_1
   1308 F8 07              5354 	lda	hl,7(sp)
   130A 7E                 5355 	ld	a,(hl)
   130B F5                 5356 	push	af
   130C 33                 5357 	inc	sp
                           5358 ;	genIpush
                           5359 ;	AOP_STK for _init_key_i_1_1
   130D 2B                 5360 	dec	hl
   130E 2B                 5361 	dec	hl
   130F 7E                 5362 	ld	a,(hl)
   1310 F5                 5363 	push	af
   1311 33                 5364 	inc	sp
                           5365 ;	genCall
   1312 CD 00 00           5366 	call	_move_sprite
   1315 E8 03              5367 	lda	sp,3(sp)
                           5368 ;	r2tune.c 462
                           5369 ;	genPlus
                           5370 ;	AOP_STK for _init_key_i_1_1
                           5371 ;	genPlusIncr
   1317 F8 04              5372 	lda	hl,4(sp)
   1319 34                 5373 	inc	(hl)
                           5374 ;	genGoto
   131A C3 DC 12           5375 	jp	00109$
                           5376 ;	genLabel
   131D                    5377 00112$:
                           5378 ;	r2tune.c 470
                           5379 ;	genAssign
                           5380 ;	AOP_STK for _init_key_i_1_1
   131D F8 04              5381 	lda	hl,4(sp)
   131F 36 00              5382 	ld	(hl),#0x00
                           5383 ;	genLabel
   1321                    5384 00113$:
                           5385 ;	genCmpGt
                           5386 ;	AOP_STK for _init_key_i_1_1
   1321 3E 03              5387 	ld	a,#0x03
   1323 F8 04              5388 	lda	hl,4(sp)
   1325 96                 5389 	sub	a,(hl)
   1326 DA 7E 13           5390 	jp	c,00116$
                           5391 ;	r2tune.c 471
                           5392 ;	genPlus
                           5393 ;	AOP_STK for _init_key_i_1_1
                           5394 ;	genPlusIncr
   1329 4E                 5395 	ld	c,(hl)
   132A 0C                 5396 	inc	c
                           5397 ;	genMult
                           5398 ;	AOP_STK for _init_key_sloc0_1_0
   132B 59                 5399 	ld	e,c
   132C 16 00              5400 	ld	d,#0x00
   132E 6B                 5401 	ld	l,e
   132F 62                 5402 	ld	h,d
   1330 29                 5403 	add	hl,hl
   1331 19                 5404 	add	hl,de
   1332 29                 5405 	add	hl,hl
   1333 29                 5406 	add	hl,hl
   1334 29                 5407 	add	hl,hl
   1335 7D                 5408 	ld	a,l
   1336 54                 5409 	ld	d,h
   1337 F8 02              5410 	lda	hl,2(sp)
   1339 22                 5411 	ld	(hl+),a
   133A 72                 5412 	ld	(hl),d
                           5413 ;	genPlus
                           5414 ;	AOP_STK for _init_key_sloc0_1_0
                           5415 ;	AOP_STK for _init_key_sloc1_1_0
                           5416 ;	genPlusIncr
                           5417 ;	Can't optimise plus by inc, falling back to the normal way
   133B 2B                 5418 	dec	hl
   133C 5E                 5419 	ld	e,(hl)
   133D 23                 5420 	inc	hl
   133E 56                 5421 	ld	d,(hl)
   133F 21 28 00           5422 	ld	hl,#0x0028
   1342 19                 5423 	add	hl,de
   1343 7D                 5424 	ld	a,l
   1344 54                 5425 	ld	d,h
   1345 F8 00              5426 	lda	hl,0(sp)
   1347 22                 5427 	ld	(hl+),a
   1348 72                 5428 	ld	(hl),d
                           5429 ;	genCast
                           5430 ;	AOP_STK for _init_key_sloc1_1_0
                           5431 ;	AOP_STK for _init_key_key_y_1_1
   1349 2B                 5432 	dec	hl
   134A 7E                 5433 	ld	a,(hl)
   134B F8 05              5434 	lda	hl,5(sp)
                           5435 ;	r2tune.c 472
                           5436 ;	genPlus
                           5437 ;	AOP_STK for _init_key_i_1_1
                           5438 ;	AOP_STK for _init_key_sloc1_1_0
                           5439 ;	genPlusIncr
                           5440 ;	Can't optimise plus by inc, falling back to the normal way
   134D 32                 5441 	ld      (hl-),a
   134E 7E                 5442 	ld	a,(hl)
   134F C6 0A              5443 	add	a,#0x0A
   1351 F8 00              5444 	lda	hl,0(sp)
   1353 77                 5445 	ld	(hl),a
                           5446 ;	genIpush
                           5447 ; _saveRegsForCall: sendSetSize: 0 deInUse: 0 bcInUse: 1 deSending: 0
   1354 C5                 5448 	push	bc
                           5449 ;	AOP_STK for _init_key_sloc1_1_0
   1355 7E                 5450 	ld	a,(hl)
   1356 F5                 5451 	push	af
   1357 33                 5452 	inc	sp
                           5453 ;	genIpush
                           5454 ;	AOP_STK for _init_key_sloc1_1_0
   1358 7E                 5455 	ld	a,(hl)
   1359 F5                 5456 	push	af
   135A 33                 5457 	inc	sp
                           5458 ;	genCall
   135B CD 00 00           5459 	call	_set_sprite_tile
   135E E8 02              5460 	lda	sp,2(sp)
   1360 E1                 5461 	pop	hl
   1361 4D                 5462 	ld	c,l
                           5463 ;	r2tune.c 473
                           5464 ;	genIpush
                           5465 ; _saveRegsForCall: sendSetSize: 0 deInUse: 0 bcInUse: 1 deSending: 0
   1362 C5                 5466 	push	bc
                           5467 ;	AOP_STK for _init_key_key_y_1_1
   1363 F8 07              5468 	lda	hl,7(sp)
   1365 7E                 5469 	ld	a,(hl)
   1366 F5                 5470 	push	af
   1367 33                 5471 	inc	sp
                           5472 ;	genIpush
   1368 3E 60              5473 	ld	a,#0x60
   136A F5                 5474 	push	af
   136B 33                 5475 	inc	sp
                           5476 ;	genIpush
                           5477 ;	AOP_STK for _init_key_sloc1_1_0
   136C F8 04              5478 	lda	hl,4(sp)
   136E 7E                 5479 	ld	a,(hl)
   136F F5                 5480 	push	af
   1370 33                 5481 	inc	sp
                           5482 ;	genCall
   1371 CD 00 00           5483 	call	_move_sprite
   1374 E8 03              5484 	lda	sp,3(sp)
   1376 E1                 5485 	pop	hl
   1377 4D                 5486 	ld	c,l
                           5487 ;	r2tune.c 470
                           5488 ;	genAssign
                           5489 ;	(registers are the same)
                           5490 ;	genAssign
                           5491 ;	AOP_STK for _init_key_i_1_1
   1378 F8 04              5492 	lda	hl,4(sp)
   137A 71                 5493 	ld	(hl),c
                           5494 ;	genGoto
   137B C3 21 13           5495 	jp	00113$
                           5496 ;	genLabel
   137E                    5497 00116$:
                           5498 ;	r2tune.c 477
                           5499 ;	genIpush
                           5500 ; _saveRegsForCall: sendSetSize: 0 deInUse: 0 bcInUse: 0 deSending: 0
   137E 21 0F 0F           5501 	ld	hl,#0x0F0F
   1381 E5                 5502 	push	hl
                           5503 ;	genCall
   1382 CD 00 00           5504 	call	_set_sprite_tile
   1385 E8 02              5505 	lda	sp,2(sp)
                           5506 ;	r2tune.c 478
                           5507 ;	genIpush
                           5508 ; _saveRegsForCall: sendSetSize: 0 deInUse: 0 bcInUse: 0 deSending: 0
   1387 21 18 88           5509 	ld	hl,#0x8818
   138A E5                 5510 	push	hl
                           5511 ;	genIpush
   138B 3E 0F              5512 	ld	a,#0x0F
   138D F5                 5513 	push	af
   138E 33                 5514 	inc	sp
                           5515 ;	genCall
   138F CD 00 00           5516 	call	_move_sprite
   1392 E8 03              5517 	lda	sp,3(sp)
                           5518 ;	r2tune.c 479
                           5519 ;	genIpush
                           5520 ; _saveRegsForCall: sendSetSize: 0 deInUse: 0 bcInUse: 0 deSending: 0
   1394 21 00 00           5521 	ld	hl,#0x0000
   1397 E5                 5522 	push	hl
                           5523 ;	genCall
   1398 CD 00 00           5524 	call	_set_sprite_tile
   139B E8 02              5525 	lda	sp,2(sp)
                           5526 ;	r2tune.c 480
                           5527 ;	genIpush
                           5528 ; _saveRegsForCall: sendSetSize: 0 deInUse: 0 bcInUse: 0 deSending: 0
   139D 21 30 88           5529 	ld	hl,#0x8830
   13A0 E5                 5530 	push	hl
                           5531 ;	genIpush
   13A1 3E 00              5532 	ld	a,#0x00
   13A3 F5                 5533 	push	af
   13A4 33                 5534 	inc	sp
                           5535 ;	genCall
   13A5 CD 00 00           5536 	call	_move_sprite
   13A8 E8 03              5537 	lda	sp,3(sp)
                           5538 ;	r2tune.c 481
                           5539 ;	genIpush
                           5540 ; _saveRegsForCall: sendSetSize: 0 deInUse: 0 bcInUse: 0 deSending: 0
   13AA 21 0E 0E           5541 	ld	hl,#0x0E0E
   13AD E5                 5542 	push	hl
                           5543 ;	genCall
   13AE CD 00 00           5544 	call	_set_sprite_tile
   13B1 E8 02              5545 	lda	sp,2(sp)
                           5546 ;	r2tune.c 482
                           5547 ;	genIpush
                           5548 ; _saveRegsForCall: sendSetSize: 0 deInUse: 0 bcInUse: 0 deSending: 0
   13B3 21 48 88           5549 	ld	hl,#0x8848
   13B6 E5                 5550 	push	hl
                           5551 ;	genIpush
   13B7 3E 0E              5552 	ld	a,#0x0E
   13B9 F5                 5553 	push	af
   13BA 33                 5554 	inc	sp
                           5555 ;	genCall
   13BB CD 00 00           5556 	call	_move_sprite
   13BE E8 03              5557 	lda	sp,3(sp)
                           5558 ;	r2tune.c 486
                           5559 ;	genAssign
                           5560 ;	AOP_STK for _init_key_i_1_1
   13C0 F8 04              5561 	lda	hl,4(sp)
   13C2 36 00              5562 	ld	(hl),#0x00
                           5563 ;	genLabel
   13C4                    5564 00117$:
                           5565 ;	genCmpGt
                           5566 ;	AOP_STK for _init_key_i_1_1
   13C4 3E 02              5567 	ld	a,#0x02
   13C6 F8 04              5568 	lda	hl,4(sp)
   13C8 96                 5569 	sub	a,(hl)
   13C9 DA 1C 14           5570 	jp	c,00120$
                           5571 ;	r2tune.c 487
                           5572 ;	genPlus
                           5573 ;	AOP_STK for _init_key_i_1_1
                           5574 ;	genPlusIncr
   13CC 4E                 5575 	ld	c,(hl)
   13CD 0C                 5576 	inc	c
                           5577 ;	genMult
                           5578 ;	AOP_STK for _init_key_sloc1_1_0
   13CE 59                 5579 	ld	e,c
   13CF 16 00              5580 	ld	d,#0x00
   13D1 6B                 5581 	ld	l,e
   13D2 62                 5582 	ld	h,d
   13D3 29                 5583 	add	hl,hl
   13D4 19                 5584 	add	hl,de
   13D5 29                 5585 	add	hl,hl
   13D6 29                 5586 	add	hl,hl
   13D7 29                 5587 	add	hl,hl
   13D8 7D                 5588 	ld	a,l
   13D9 54                 5589 	ld	d,h
   13DA F8 00              5590 	lda	hl,0(sp)
   13DC 22                 5591 	ld	(hl+),a
   13DD 72                 5592 	ld	(hl),d
                           5593 ;	genPlus
                           5594 ;	AOP_STK for _init_key_sloc1_1_0
                           5595 ;	AOP_STK for _init_key_sloc0_1_0
                           5596 ;	genPlusIncr
                           5597 ;	Can't optimise plus by inc, falling back to the normal way
   13DE 2B                 5598 	dec	hl
   13DF 5E                 5599 	ld	e,(hl)
   13E0 23                 5600 	inc	hl
   13E1 56                 5601 	ld	d,(hl)
   13E2 21 28 00           5602 	ld	hl,#0x0028
   13E5 19                 5603 	add	hl,de
   13E6 7D                 5604 	ld	a,l
   13E7 54                 5605 	ld	d,h
   13E8 F8 02              5606 	lda	hl,2(sp)
   13EA 22                 5607 	ld	(hl+),a
   13EB 72                 5608 	ld	(hl),d
                           5609 ;	genCast
                           5610 ;	AOP_STK for _init_key_sloc0_1_0
                           5611 ;	AOP_STK for _init_key_key_y_1_1
   13EC 2B                 5612 	dec	hl
   13ED 7E                 5613 	ld	a,(hl)
   13EE F8 05              5614 	lda	hl,5(sp)
                           5615 ;	r2tune.c 488
                           5616 ;	genPlus
                           5617 ;	AOP_STK for _init_key_i_1_1
                           5618 ;	genPlusIncr
                           5619 ;	Can't optimise plus by inc, falling back to the normal way
   13F0 32                 5620 	ld      (hl-),a
   13F1 7E                 5621 	ld	a,(hl)
   13F2 C6 10              5622 	add	a,#0x10
   13F4 47                 5623 	ld	b,a
                           5624 ;	genIpush
                           5625 ; _saveRegsForCall: sendSetSize: 0 deInUse: 0 bcInUse: 1 deSending: 0
   13F5 C5                 5626 	push	bc
   13F6 78                 5627 	ld	a,b
   13F7 F5                 5628 	push	af
   13F8 33                 5629 	inc	sp
                           5630 ;	genIpush
   13F9 78                 5631 	ld	a,b
   13FA F5                 5632 	push	af
   13FB 33                 5633 	inc	sp
                           5634 ;	genCall
   13FC CD 00 00           5635 	call	_set_sprite_tile
   13FF E8 02              5636 	lda	sp,2(sp)
   1401 C1                 5637 	pop	bc
                           5638 ;	r2tune.c 489
                           5639 ;	genIpush
                           5640 ; _saveRegsForCall: sendSetSize: 0 deInUse: 0 bcInUse: 1 deSending: 0
   1402 C5                 5641 	push	bc
                           5642 ;	AOP_STK for _init_key_key_y_1_1
   1403 F8 07              5643 	lda	hl,7(sp)
   1405 7E                 5644 	ld	a,(hl)
   1406 F5                 5645 	push	af
   1407 33                 5646 	inc	sp
                           5647 ;	genIpush
   1408 3E 80              5648 	ld	a,#0x80
   140A F5                 5649 	push	af
   140B 33                 5650 	inc	sp
                           5651 ;	genIpush
   140C 78                 5652 	ld	a,b
   140D F5                 5653 	push	af
   140E 33                 5654 	inc	sp
                           5655 ;	genCall
   140F CD 00 00           5656 	call	_move_sprite
   1412 E8 03              5657 	lda	sp,3(sp)
   1414 E1                 5658 	pop	hl
   1415 4D                 5659 	ld	c,l
                           5660 ;	r2tune.c 486
                           5661 ;	genAssign
                           5662 ;	(registers are the same)
                           5663 ;	genAssign
                           5664 ;	AOP_STK for _init_key_i_1_1
   1416 F8 04              5665 	lda	hl,4(sp)
   1418 71                 5666 	ld	(hl),c
                           5667 ;	genGoto
   1419 C3 C4 13           5668 	jp	00117$
                           5669 ;	genLabel
   141C                    5670 00120$:
                           5671 ;	r2tune.c 494
                           5672 ;	genAssign
                           5673 ;	AOP_STK for _init_key_i_1_1
   141C F8 04              5674 	lda	hl,4(sp)
   141E 36 00              5675 	ld	(hl),#0x00
                           5676 ;	genLabel
   1420                    5677 00121$:
                           5678 ;	genCmpGt
                           5679 ;	AOP_STK for _init_key_i_1_1
   1420 3E 02              5680 	ld	a,#0x02
   1422 F8 04              5681 	lda	hl,4(sp)
   1424 96                 5682 	sub	a,(hl)
   1425 DA 78 14           5683 	jp	c,00124$
                           5684 ;	r2tune.c 495
                           5685 ;	genPlus
                           5686 ;	AOP_STK for _init_key_i_1_1
                           5687 ;	genPlusIncr
   1428 4E                 5688 	ld	c,(hl)
   1429 0C                 5689 	inc	c
                           5690 ;	genMult
                           5691 ;	AOP_STK for _init_key_sloc1_1_0
   142A 59                 5692 	ld	e,c
   142B 16 00              5693 	ld	d,#0x00
   142D 6B                 5694 	ld	l,e
   142E 62                 5695 	ld	h,d
   142F 29                 5696 	add	hl,hl
   1430 19                 5697 	add	hl,de
   1431 29                 5698 	add	hl,hl
   1432 29                 5699 	add	hl,hl
   1433 29                 5700 	add	hl,hl
   1434 7D                 5701 	ld	a,l
   1435 54                 5702 	ld	d,h
   1436 F8 00              5703 	lda	hl,0(sp)
   1438 22                 5704 	ld	(hl+),a
   1439 72                 5705 	ld	(hl),d
                           5706 ;	genPlus
                           5707 ;	AOP_STK for _init_key_sloc1_1_0
                           5708 ;	AOP_STK for _init_key_sloc0_1_0
                           5709 ;	genPlusIncr
                           5710 ;	Can't optimise plus by inc, falling back to the normal way
   143A 2B                 5711 	dec	hl
   143B 5E                 5712 	ld	e,(hl)
   143C 23                 5713 	inc	hl
   143D 56                 5714 	ld	d,(hl)
   143E 21 28 00           5715 	ld	hl,#0x0028
   1441 19                 5716 	add	hl,de
   1442 7D                 5717 	ld	a,l
   1443 54                 5718 	ld	d,h
   1444 F8 02              5719 	lda	hl,2(sp)
   1446 22                 5720 	ld	(hl+),a
   1447 72                 5721 	ld	(hl),d
                           5722 ;	genCast
                           5723 ;	AOP_STK for _init_key_sloc0_1_0
                           5724 ;	AOP_STK for _init_key_key_y_1_1
   1448 2B                 5725 	dec	hl
   1449 7E                 5726 	ld	a,(hl)
   144A F8 05              5727 	lda	hl,5(sp)
                           5728 ;	r2tune.c 496
                           5729 ;	genPlus
                           5730 ;	AOP_STK for _init_key_i_1_1
                           5731 ;	genPlusIncr
                           5732 ;	Can't optimise plus by inc, falling back to the normal way
   144C 32                 5733 	ld      (hl-),a
   144D 7E                 5734 	ld	a,(hl)
   144E C6 13              5735 	add	a,#0x13
   1450 47                 5736 	ld	b,a
                           5737 ;	genIpush
                           5738 ; _saveRegsForCall: sendSetSize: 0 deInUse: 0 bcInUse: 1 deSending: 0
   1451 C5                 5739 	push	bc
   1452 78                 5740 	ld	a,b
   1453 F5                 5741 	push	af
   1454 33                 5742 	inc	sp
                           5743 ;	genIpush
   1455 78                 5744 	ld	a,b
   1456 F5                 5745 	push	af
   1457 33                 5746 	inc	sp
                           5747 ;	genCall
   1458 CD 00 00           5748 	call	_set_sprite_tile
   145B E8 02              5749 	lda	sp,2(sp)
   145D C1                 5750 	pop	bc
                           5751 ;	r2tune.c 497
                           5752 ;	genIpush
                           5753 ; _saveRegsForCall: sendSetSize: 0 deInUse: 0 bcInUse: 1 deSending: 0
   145E C5                 5754 	push	bc
                           5755 ;	AOP_STK for _init_key_key_y_1_1
   145F F8 07              5756 	lda	hl,7(sp)
   1461 7E                 5757 	ld	a,(hl)
   1462 F5                 5758 	push	af
   1463 33                 5759 	inc	sp
                           5760 ;	genIpush
   1464 3E 98              5761 	ld	a,#0x98
   1466 F5                 5762 	push	af
   1467 33                 5763 	inc	sp
                           5764 ;	genIpush
   1468 78                 5765 	ld	a,b
   1469 F5                 5766 	push	af
   146A 33                 5767 	inc	sp
                           5768 ;	genCall
   146B CD 00 00           5769 	call	_move_sprite
   146E E8 03              5770 	lda	sp,3(sp)
   1470 E1                 5771 	pop	hl
   1471 4D                 5772 	ld	c,l
                           5773 ;	r2tune.c 494
                           5774 ;	genAssign
                           5775 ;	(registers are the same)
                           5776 ;	genAssign
                           5777 ;	AOP_STK for _init_key_i_1_1
   1472 F8 04              5778 	lda	hl,4(sp)
   1474 71                 5779 	ld	(hl),c
                           5780 ;	genGoto
   1475 C3 20 14           5781 	jp	00121$
                           5782 ;	genLabel
   1478                    5783 00124$:
                           5784 ;	r2tune.c 503
                           5785 ;	genIpush
                           5786 ; _saveRegsForCall: sendSetSize: 0 deInUse: 0 bcInUse: 0 deSending: 0
   1478 21 16 16           5787 	ld	hl,#0x1616
   147B E5                 5788 	push	hl
                           5789 ;	genCall
   147C CD 00 00           5790 	call	_set_sprite_tile
   147F E8 02              5791 	lda	sp,2(sp)
                           5792 ;	r2tune.c 504
                           5793 ;	genIpush
                           5794 ; _saveRegsForCall: sendSetSize: 0 deInUse: 0 bcInUse: 0 deSending: 0
   1481 21 8C 88           5795 	ld	hl,#0x888C
   1484 E5                 5796 	push	hl
                           5797 ;	genIpush
   1485 3E 16              5798 	ld	a,#0x16
   1487 F5                 5799 	push	af
   1488 33                 5800 	inc	sp
                           5801 ;	genCall
   1489 CD 00 00           5802 	call	_move_sprite
   148C E8 03              5803 	lda	sp,3(sp)
                           5804 ;	genLabel
   148E                    5805 00125$:
                           5806 ;	genEndFunction
   148E E8 07              5807 	lda	sp,7(sp)
   1490 C9                 5808 	ret
   1491                    5809 ___init_key_end:
                           5810 ;	r2tune.c 507
                           5811 ;	genLabel
                           5812 ;	genFunction
                           5813 ;	---------------------------------
                           5814 ; Function init_bkg
                           5815 ; ---------------------------------
   1491                    5816 ___init_bkg_start:
   1491                    5817 _init_bkg:
                           5818 	
                           5819 ;	r2tune.c 510
                           5820 ;	genIpush
                           5821 ; _saveRegsForCall: sendSetSize: 0 deInUse: 0 bcInUse: 0 deSending: 0
   1491 21 3D 00           5822 	ld	hl,#_frame_lcd
   1494 E5                 5823 	push	hl
                           5824 ;	genIpush
   1495 21 00 09           5825 	ld	hl,#0x0900
   1498 E5                 5826 	push	hl
                           5827 ;	genCall
   1499 CD 00 00           5828 	call	_set_bkg_data
   149C E8 04              5829 	lda	sp,4(sp)
                           5830 ;	r2tune.c 511
                           5831 ;	genIpush
                           5832 ; _saveRegsForCall: sendSetSize: 0 deInUse: 0 bcInUse: 0 deSending: 0
   149E 21 CD 00           5833 	ld	hl,#_break_btn
   14A1 E5                 5834 	push	hl
                           5835 ;	genIpush
   14A2 21 09 09           5836 	ld	hl,#0x0909
   14A5 E5                 5837 	push	hl
                           5838 ;	genCall
   14A6 CD 00 00           5839 	call	_set_bkg_data
   14A9 E8 04              5840 	lda	sp,4(sp)
                           5841 ;	r2tune.c 512
                           5842 ;	genIpush
                           5843 ; _saveRegsForCall: sendSetSize: 0 deInUse: 0 bcInUse: 0 deSending: 0
   14AB 21 5D 01           5844 	ld	hl,#_press_btn
   14AE E5                 5845 	push	hl
                           5846 ;	genIpush
   14AF 21 12 09           5847 	ld	hl,#0x0912
   14B2 E5                 5848 	push	hl
                           5849 ;	genCall
   14B3 CD 00 00           5850 	call	_set_bkg_data
   14B6 E8 04              5851 	lda	sp,4(sp)
                           5852 ;	r2tune.c 514
                           5853 ;	genIpush
                           5854 ; _saveRegsForCall: sendSetSize: 0 deInUse: 0 bcInUse: 0 deSending: 0
   14B8 21 05 07           5855 	ld	hl,#_dtmf_tile
   14BB E5                 5856 	push	hl
                           5857 ;	genIpush
   14BC 21 14 12           5858 	ld	hl,#0x1214
   14BF E5                 5859 	push	hl
                           5860 ;	genIpush
   14C0 21 00 00           5861 	ld	hl,#0x0000
   14C3 E5                 5862 	push	hl
                           5863 ;	genCall
   14C4 CD 00 00           5864 	call	_set_bkg_tiles
   14C7 E8 06              5865 	lda	sp,6(sp)
                           5866 ;	genLabel
   14C9                    5867 00101$:
                           5868 ;	genEndFunction
                           5869 	
   14C9 C9                 5870 	ret
   14CA                    5871 ___init_bkg_end:
                           5872 ;	r2tune.c 517
                           5873 ;	genLabel
                           5874 ;	genFunction
                           5875 ;	---------------------------------
                           5876 ; Function init_cursor
                           5877 ; ---------------------------------
   14CA                    5878 ___init_cursor_start:
   14CA                    5879 _init_cursor:
                           5880 	
                           5881 ;	r2tune.c 522
                           5882 ;	genIpush
                           5883 ; _saveRegsForCall: sendSetSize: 0 deInUse: 0 bcInUse: 0 deSending: 0
   14CA 21 7D 06           5884 	ld	hl,#_cursor_data
   14CD E5                 5885 	push	hl
                           5886 ;	genIpush
   14CE 21 17 08           5887 	ld	hl,#0x0817
   14D1 E5                 5888 	push	hl
                           5889 ;	genCall
   14D2 CD 00 00           5890 	call	_set_sprite_data
   14D5 E8 04              5891 	lda	sp,4(sp)
                           5892 ;	r2tune.c 524
                           5893 ;	genAssign
   14D7 0E 17              5894 	ld	c,#0x17
                           5895 ;	genLabel
   14D9                    5896 00101$:
                           5897 ;	genCmpGt
   14D9 3E 1E              5898 	ld	a,#0x1E
   14DB 91                 5899 	sub	a,c
   14DC DA F1 14           5900 	jp	c,00105$
                           5901 ;	r2tune.c 525
                           5902 ;	genIpush
                           5903 ; _saveRegsForCall: sendSetSize: 0 deInUse: 0 bcInUse: 1 deSending: 0
   14DF C5                 5904 	push	bc
   14E0 79                 5905 	ld	a,c
   14E1 F5                 5906 	push	af
   14E2 33                 5907 	inc	sp
                           5908 ;	genIpush
   14E3 79                 5909 	ld	a,c
   14E4 F5                 5910 	push	af
   14E5 33                 5911 	inc	sp
                           5912 ;	genCall
   14E6 CD 00 00           5913 	call	_set_sprite_tile
   14E9 E8 02              5914 	lda	sp,2(sp)
   14EB E1                 5915 	pop	hl
   14EC 4D                 5916 	ld	c,l
                           5917 ;	r2tune.c 524
                           5918 ;	genPlus
                           5919 ;	genPlusIncr
                           5920 ; Removed redundent load
   14ED 0C                 5921 	inc	c
                           5922 ;	genGoto
   14EE C3 D9 14           5923 	jp	00101$
                           5924 ;	genLabel
   14F1                    5925 00105$:
                           5926 ;	genEndFunction
                           5927 	
   14F1 C9                 5928 	ret
   14F2                    5929 ___init_cursor_end:
                           5930 ;	r2tune.c 529
                           5931 ;	genLabel
                           5932 ;	genFunction
                           5933 ;	---------------------------------
                           5934 ; Function move_cursor
                           5935 ; ---------------------------------
   14F2                    5936 ___move_cursor_start:
   14F2                    5937 _move_cursor:
                           5938 	
                           5939 ;	r2tune.c 531
                           5940 ;	genIpush
                           5941 ; _saveRegsForCall: sendSetSize: 0 deInUse: 0 bcInUse: 0 deSending: 0
                           5942 ;	AOP_STK for 
   14F2 F8 03              5943 	lda	hl,3(sp)
   14F4 7E                 5944 	ld	a,(hl)
   14F5 F5                 5945 	push	af
   14F6 33                 5946 	inc	sp
                           5947 ;	genIpush
                           5948 ;	AOP_STK for 
   14F7 2B                 5949 	dec	hl
   14F8 7E                 5950 	ld	a,(hl)
   14F9 F5                 5951 	push	af
   14FA 33                 5952 	inc	sp
                           5953 ;	genIpush
   14FB 3E 17              5954 	ld	a,#0x17
   14FD F5                 5955 	push	af
   14FE 33                 5956 	inc	sp
                           5957 ;	genCall
   14FF CD 00 00           5958 	call	_move_sprite
   1502 E8 03              5959 	lda	sp,3(sp)
                           5960 ;	r2tune.c 532
                           5961 ;	genPlus
                           5962 ;	AOP_STK for 
                           5963 ;	genPlusIncr
                           5964 ;	Can't optimise plus by inc, falling back to the normal way
   1504 F8 03              5965 	lda	hl,3(sp)
   1506 7E                 5966 	ld	a,(hl)
   1507 C6 08              5967 	add	a,#0x08
   1509 4F                 5968 	ld	c,a
                           5969 ;	genIpush
                           5970 ; _saveRegsForCall: sendSetSize: 0 deInUse: 0 bcInUse: 1 deSending: 0
   150A C5                 5971 	push	bc
   150B 79                 5972 	ld	a,c
   150C F5                 5973 	push	af
   150D 33                 5974 	inc	sp
                           5975 ;	genIpush
                           5976 ;	AOP_STK for 
   150E 2B                 5977 	dec	hl
   150F 7E                 5978 	ld	a,(hl)
   1510 F5                 5979 	push	af
   1511 33                 5980 	inc	sp
                           5981 ;	genIpush
   1512 3E 18              5982 	ld	a,#0x18
   1514 F5                 5983 	push	af
   1515 33                 5984 	inc	sp
                           5985 ;	genCall
   1516 CD 00 00           5986 	call	_move_sprite
   1519 E8 03              5987 	lda	sp,3(sp)
   151B E1                 5988 	pop	hl
   151C 4D                 5989 	ld	c,l
                           5990 ;	r2tune.c 533
                           5991 ;	genPlus
                           5992 ;	AOP_STK for 
                           5993 ;	genPlusIncr
                           5994 ;	Can't optimise plus by inc, falling back to the normal way
   151D F8 02              5995 	lda	hl,2(sp)
   151F 7E                 5996 	ld	a,(hl)
   1520 C6 08              5997 	add	a,#0x08
   1522 47                 5998 	ld	b,a
                           5999 ;	genIpush
                           6000 ; _saveRegsForCall: sendSetSize: 0 deInUse: 0 bcInUse: 1 deSending: 0
   1523 C5                 6001 	push	bc
                           6002 ;	AOP_STK for 
   1524 23                 6003 	inc	hl
   1525 7E                 6004 	ld	a,(hl)
   1526 F5                 6005 	push	af
   1527 33                 6006 	inc	sp
                           6007 ;	genIpush
   1528 78                 6008 	ld	a,b
   1529 F5                 6009 	push	af
   152A 33                 6010 	inc	sp
                           6011 ;	genIpush
   152B 3E 19              6012 	ld	a,#0x19
   152D F5                 6013 	push	af
   152E 33                 6014 	inc	sp
                           6015 ;	genCall
   152F CD 00 00           6016 	call	_move_sprite
   1532 E8 03              6017 	lda	sp,3(sp)
   1534 C1                 6018 	pop	bc
                           6019 ;	r2tune.c 534
                           6020 ;	genIpush
                           6021 ; _saveRegsForCall: sendSetSize: 0 deInUse: 0 bcInUse: 0 deSending: 0
   1535 79                 6022 	ld	a,c
   1536 F5                 6023 	push	af
   1537 33                 6024 	inc	sp
                           6025 ;	genIpush
   1538 78                 6026 	ld	a,b
   1539 F5                 6027 	push	af
   153A 33                 6028 	inc	sp
                           6029 ;	genIpush
   153B 3E 1A              6030 	ld	a,#0x1A
   153D F5                 6031 	push	af
   153E 33                 6032 	inc	sp
                           6033 ;	genCall
   153F CD 00 00           6034 	call	_move_sprite
   1542 E8 03              6035 	lda	sp,3(sp)
                           6036 ;	genLabel
   1544                    6037 00101$:
                           6038 ;	genEndFunction
                           6039 	
   1544 C9                 6040 	ret
   1545                    6041 ___move_cursor_end:
                           6042 ;	r2tune.c 537
                           6043 ;	genLabel
                           6044 ;	genFunction
                           6045 ;	---------------------------------
                           6046 ; Function logo_bkg
                           6047 ; ---------------------------------
   1545                    6048 ___logo_bkg_start:
   1545                    6049 _logo_bkg:
                           6050 	
                           6051 ;	r2tune.c 539
                           6052 ;	genIpush
                           6053 ; _saveRegsForCall: sendSetSize: 0 deInUse: 0 bcInUse: 0 deSending: 0
   1545 21 6A 15           6054 	ld	hl,#__str_1
   1548 E5                 6055 	push	hl
                           6056 ;	genCall
   1549 CD 00 00           6057 	call	_printf
   154C E8 02              6058 	lda	sp,2(sp)
                           6059 ;	r2tune.c 540
                           6060 ;	genIpush
                           6061 ; _saveRegsForCall: sendSetSize: 0 deInUse: 0 bcInUse: 0 deSending: 0
   154E 21 82 15           6062 	ld	hl,#__str_2
   1551 E5                 6063 	push	hl
                           6064 ;	genCall
   1552 CD 00 00           6065 	call	_printf
   1555 E8 02              6066 	lda	sp,2(sp)
                           6067 ;	r2tune.c 541
                           6068 ;	genIpush
                           6069 ; _saveRegsForCall: sendSetSize: 0 deInUse: 0 bcInUse: 0 deSending: 0
   1557 21 B5 15           6070 	ld	hl,#__str_3
   155A E5                 6071 	push	hl
                           6072 ;	genCall
   155B CD 00 00           6073 	call	_printf
   155E E8 02              6074 	lda	sp,2(sp)
                           6075 ;	r2tune.c 542
                           6076 ;	genIpush
                           6077 ; _saveRegsForCall: sendSetSize: 0 deInUse: 0 bcInUse: 0 deSending: 0
   1560 3E 80              6078 	ld	a,#0x80
   1562 F5                 6079 	push	af
   1563 33                 6080 	inc	sp
                           6081 ;	genCall
   1564 CD 00 00           6082 	call	_waitpad
   1567 E8 01              6083 	lda	sp,1(sp)
                           6084 ;	genLabel
   1569                    6085 00101$:
                           6086 ;	genEndFunction
                           6087 	
   1569 C9                 6088 	ret
   156A                    6089 ___logo_bkg_end:
   156A                    6090 __str_1:
   156A 3D 3D 3D 3D 3D 3D  6091 	.ascii "====== r2tune ====== "
        20 72 32 74 75 6E
        65 20 3D 3D 3D 3D
        3D 3D 20
   157F 0A                 6092 	.db 0x0A
   1580 0A                 6093 	.db 0x0A
   1581 00                 6094 	.db 0x00
   1582                    6095 __str_2:
   1582 49 64 65 6E 74 69  6096 	.ascii "Identify the magic "
        66 79 20 74 68 65
        20 6D 61 67 69 63
        20
   1595 0A                 6097 	.db 0x0A
   1596 6D 65 6C 6F 64 79  6098 	.ascii "melody to open "
        20 74 6F 20 6F 70
        65 6E 20
   15A5 0A                 6099 	.db 0x0A
   15A6 74 68 65 20 73 65  6100 	.ascii "the secret!"
        63 72 65 74 21
   15B1 0A                 6101 	.db 0x0A
   15B2 0A                 6102 	.db 0x0A
   15B3 0A                 6103 	.db 0x0A
   15B4 00                 6104 	.db 0x00
   15B5                    6105 __str_3:
   15B5 50 72 65 73 73 20  6106 	.ascii "Press any button to start..."
        61 6E 79 20 62 75
        74 74 6F 6E 20 74
        6F 20 73 74 61 72
        74 2E 2E 2E
   15D1 00                 6107 	.db 0x00
                           6108 ;	r2tune.c 545
                           6109 ;	genLabel
                           6110 ;	genFunction
                           6111 ;	---------------------------------
                           6112 ; Function main
                           6113 ; ---------------------------------
   15D2                    6114 ___main_start:
   15D2                    6115 _main:
   15D2 E8 C4              6116 	lda	sp,-60(sp)
                           6117 ;	r2tune.c 548
                           6118 ;	genAssign
                           6119 ;	AOP_STK for _main_non_flick_1_1
   15D4 F8 35              6120 	lda	hl,53(sp)
   15D6 36 00              6121 	ld	(hl),#0x00
                           6122 ;	r2tune.c 554
                           6123 ;	genAssign
                           6124 ;	AOP_STK for _main_key2_1_1
   15D8 F8 3A              6125 	lda	hl,58(sp)
   15DA 36 00              6126 	ld	(hl),#0x00
                           6127 ;	r2tune.c 557
                           6128 ;	genAssign
                           6129 ;	AOP_STK for _main_on_time_1_1
   15DC F8 33              6130 	lda	hl,51(sp)
   15DE 36 64              6131 	ld	(hl),#0x64
   15E0 23                 6132 	inc	hl
   15E1 36 00              6133 	ld	(hl),#0x00
                           6134 ;	r2tune.c 558
                           6135 ;	genAssign
                           6136 ;	AOP_STK for _main_off_time_1_1
   15E3 F8 31              6137 	lda	hl,49(sp)
   15E5 36 64              6138 	ld	(hl),#0x64
   15E7 23                 6139 	inc	hl
   15E8 36 00              6140 	ld	(hl),#0x00
                           6141 ;	r2tune.c 560
                           6142 ;	genCall
                           6143 ; _saveRegsForCall: sendSetSize: 0 deInUse: 0 bcInUse: 0 deSending: 0
   15EA CD 45 15           6144 	call	_logo_bkg
                           6145 ;	r2tune.c 563
                           6146 ;	genCall
                           6147 ; _saveRegsForCall: sendSetSize: 0 deInUse: 0 bcInUse: 0 deSending: 0
   15ED CD 00 00           6148 	call	_disable_interrupts
                           6149 ;	r2tune.c 565
                           6150 ;	genAssign
   15F0 01 40 FF           6151 	ld	bc,#0xFF40
                           6152 ;	genAssign
                           6153 ;	AOP_STK for _main_sloc0_1_0
   15F3 F8 07              6154 	lda	hl,7(sp)
   15F5 36 40              6155 	ld	(hl),#0x40
   15F7 23                 6156 	inc	hl
   15F8 36 FF              6157 	ld	(hl),#0xFF
                           6158 ;	genPointerGet
                           6159 ;	AOP_STK for _main_sloc0_1_0
                           6160 ;	AOP_STK for _main_sloc1_1_0
   15FA 2B                 6161 	dec	hl
   15FB 5E                 6162 	ld	e,(hl)
   15FC 23                 6163 	inc	hl
   15FD 56                 6164 	ld	d,(hl)
   15FE 1A                 6165 	ld	a,(de)
   15FF 2B                 6166 	dec	hl
   1600 2B                 6167 	dec	hl
                           6168 ;	genAnd
                           6169 ;	AOP_STK for _main_sloc1_1_0
   1601 77                 6170 	ld      (hl),a
                           6171 ; Removed redundent load
   1602 E6 FB              6172 	and	a,#0xFB
                           6173 ;	genAssign (pointer)
   1604 02                 6174 	ld	(bc),a
                           6175 ;	r2tune.c 567
                           6176 ;	genCall
                           6177 ; _saveRegsForCall: sendSetSize: 0 deInUse: 0 bcInUse: 0 deSending: 0
   1605 CD 00 00           6178 	call	_init_dial
                           6179 ;	r2tune.c 569
                           6180 ;	genCall
                           6181 ; _saveRegsForCall: sendSetSize: 0 deInUse: 0 bcInUse: 0 deSending: 0
   1608 CD 91 14           6182 	call	_init_bkg
                           6183 ;	r2tune.c 571
                           6184 ;	genCall
                           6185 ; _saveRegsForCall: sendSetSize: 0 deInUse: 0 bcInUse: 0 deSending: 0
   160B CD 3E 12           6186 	call	_init_key
                           6187 ;	r2tune.c 573
                           6188 ;	genCall
                           6189 ; _saveRegsForCall: sendSetSize: 0 deInUse: 0 bcInUse: 0 deSending: 0
   160E CD CA 14           6190 	call	_init_cursor
                           6191 ;	r2tune.c 575
                           6192 ;	genIpush
                           6193 ; _saveRegsForCall: sendSetSize: 0 deInUse: 0 bcInUse: 0 deSending: 0
   1611 21 FB 1A           6194 	ld	hl,#__str_4
   1614 E5                 6195 	push	hl
                           6196 ;	genCall
   1615 CD 7E 0F           6197 	call	_disp
   1618 E8 02              6198 	lda	sp,2(sp)
                           6199 ;	r2tune.c 577
                           6200 ;	genAssign
   161A 01 40 FF           6201 	ld	bc,#0xFF40
                           6202 ;	genAssign
                           6203 ;	AOP_STK for _main_sloc0_1_0
   161D F8 07              6204 	lda	hl,7(sp)
   161F 36 40              6205 	ld	(hl),#0x40
   1621 23                 6206 	inc	hl
   1622 36 FF              6207 	ld	(hl),#0xFF
                           6208 ;	genPointerGet
                           6209 ;	AOP_STK for _main_sloc0_1_0
                           6210 ;	AOP_STK for _main_sloc1_1_0
   1624 2B                 6211 	dec	hl
   1625 5E                 6212 	ld	e,(hl)
   1626 23                 6213 	inc	hl
   1627 56                 6214 	ld	d,(hl)
   1628 1A                 6215 	ld	a,(de)
   1629 2B                 6216 	dec	hl
   162A 2B                 6217 	dec	hl
                           6218 ;	genOr
                           6219 ;	AOP_STK for _main_sloc1_1_0
   162B 77                 6220 	ld      (hl),a
                           6221 ; Removed redundent load
   162C F6 01              6222 	or	a,#0x01
                           6223 ;	genAssign (pointer)
   162E 02                 6224 	ld	(bc),a
                           6225 ;	r2tune.c 578
                           6226 ;	genAssign
   162F 01 40 FF           6227 	ld	bc,#0xFF40
                           6228 ;	genAssign
                           6229 ;	AOP_STK for _main_sloc0_1_0
   1632 23                 6230 	inc	hl
   1633 36 40              6231 	ld	(hl),#0x40
   1635 23                 6232 	inc	hl
   1636 36 FF              6233 	ld	(hl),#0xFF
                           6234 ;	genPointerGet
                           6235 ;	AOP_STK for _main_sloc0_1_0
                           6236 ;	AOP_STK for _main_sloc1_1_0
   1638 2B                 6237 	dec	hl
   1639 5E                 6238 	ld	e,(hl)
   163A 23                 6239 	inc	hl
   163B 56                 6240 	ld	d,(hl)
   163C 1A                 6241 	ld	a,(de)
   163D 2B                 6242 	dec	hl
   163E 2B                 6243 	dec	hl
                           6244 ;	genOr
                           6245 ;	AOP_STK for _main_sloc1_1_0
   163F 77                 6246 	ld      (hl),a
                           6247 ; Removed redundent load
   1640 F6 02              6248 	or	a,#0x02
                           6249 ;	genAssign (pointer)
   1642 02                 6250 	ld	(bc),a
                           6251 ;	r2tune.c 579
                           6252 ;	genAssign
   1643 01 40 FF           6253 	ld	bc,#0xFF40
                           6254 ;	genAssign
                           6255 ;	AOP_STK for _main_sloc0_1_0
   1646 23                 6256 	inc	hl
   1647 36 40              6257 	ld	(hl),#0x40
   1649 23                 6258 	inc	hl
   164A 36 FF              6259 	ld	(hl),#0xFF
                           6260 ;	genPointerGet
                           6261 ;	AOP_STK for _main_sloc0_1_0
                           6262 ;	AOP_STK for _main_sloc1_1_0
   164C 2B                 6263 	dec	hl
   164D 5E                 6264 	ld	e,(hl)
   164E 23                 6265 	inc	hl
   164F 56                 6266 	ld	d,(hl)
   1650 1A                 6267 	ld	a,(de)
   1651 2B                 6268 	dec	hl
   1652 2B                 6269 	dec	hl
                           6270 ;	genOr
                           6271 ;	AOP_STK for _main_sloc1_1_0
   1653 77                 6272 	ld      (hl),a
                           6273 ; Removed redundent load
   1654 F6 80              6274 	or	a,#0x80
                           6275 ;	genAssign (pointer)
   1656 02                 6276 	ld	(bc),a
                           6277 ;	r2tune.c 581
                           6278 ;	genCall
                           6279 ; _saveRegsForCall: sendSetSize: 0 deInUse: 0 bcInUse: 0 deSending: 0
   1657 CD 00 00           6280 	call	_enable_interrupts
                           6281 ;	r2tune.c 583
                           6282 ;	genAssign
                           6283 ;	AOP_STK for _main_j_1_1
   165A F8 38              6284 	lda	hl,56(sp)
   165C 36 00              6285 	ld	(hl),#0x00
                           6286 ;	genAssign
                           6287 ;	AOP_STK for _main_i_1_1
   165E 23                 6288 	inc	hl
   165F 36 00              6289 	ld	(hl),#0x00
                           6290 ;	r2tune.c 585
                           6291 ;	genAssign
                           6292 ;	AOP_STK for _main_ch_pos_1_1
   1661 F8 36              6293 	lda	hl,54(sp)
   1663 36 00              6294 	ld	(hl),#0x00
                           6295 ;	r2tune.c 587
                           6296 ;	genLabel
   1665                    6297 00187$:
                           6298 ;	r2tune.c 588
                           6299 ;	genCall
                           6300 ; _saveRegsForCall: sendSetSize: 0 deInUse: 0 bcInUse: 0 deSending: 0
   1665 CD 00 00           6301 	call	_wait_vbl_done
                           6302 ;	r2tune.c 589
                           6303 ;	genCall
                           6304 ; _saveRegsForCall: sendSetSize: 0 deInUse: 0 bcInUse: 0 deSending: 0
   1668 CD 00 00           6305 	call	_joypad
                           6306 ;	AOP_STK for _main_key1_1_1
   166B F8 3B              6307 	lda	hl,59(sp)
   166D 73                 6308 	ld	(hl),e
                           6309 ;	genAssign
                           6310 ;	AOP_STK for _main_key1_1_1
                           6311 ;	(registers are the same)
                           6312 ;	r2tune.c 591
                           6313 ;	genCmpEq
                           6314 ;	AOP_STK for _main_key1_1_1
                           6315 ;	AOP_STK for _main_key2_1_1
                           6316 ; genCmpEq: left 1, right 1, result 0
   166E F8 3A              6317 	lda	hl,58(sp)
   1670 2A                 6318 	ld	a,(hl+)
   1671 BE                 6319 	cp	(hl)
   1672 20 03              6320 	jr	nz,00241$
   1674 C3 B8 16           6321 	jp	00102$
   1677                    6322 00241$:
                           6323 ;	r2tune.c 592
                           6324 ;	genMult
                           6325 ;	AOP_STK for _main_i_1_1
                           6326 ;	AOP_STK for _main_sloc0_1_0
   1677 F8 39              6327 	lda	hl,57(sp)
   1679 5E                 6328 	ld	e,(hl)
   167A 16 00              6329 	ld	d,#0x00
   167C 6B                 6330 	ld	l,e
   167D 62                 6331 	ld	h,d
   167E 29                 6332 	add	hl,hl
   167F 19                 6333 	add	hl,de
   1680 29                 6334 	add	hl,hl
   1681 29                 6335 	add	hl,hl
   1682 29                 6336 	add	hl,hl
   1683 7D                 6337 	ld	a,l
   1684 54                 6338 	ld	d,h
   1685 F8 07              6339 	lda	hl,7(sp)
   1687 22                 6340 	ld	(hl+),a
   1688 72                 6341 	ld	(hl),d
                           6342 ;	genPlus
                           6343 ;	AOP_STK for _main_sloc0_1_0
                           6344 ;	genPlusIncr
                           6345 ;	Can't optimise plus by inc, falling back to the normal way
   1689 2B                 6346 	dec	hl
   168A 5E                 6347 	ld	e,(hl)
   168B 23                 6348 	inc	hl
   168C 56                 6349 	ld	d,(hl)
   168D 21 18 00           6350 	ld	hl,#0x0018
   1690 19                 6351 	add	hl,de
   1691 4D                 6352 	ld	c,l
   1692 44                 6353 	ld	b,h
                           6354 ;	genCast
                           6355 ;	AOP_STK for _main_pos_x_1_1
   1693 F8 37              6356 	lda	hl,55(sp)
   1695 71                 6357 	ld	(hl),c
                           6358 ;	r2tune.c 593
                           6359 ;	genMult
                           6360 ;	AOP_STK for _main_j_1_1
   1696 23                 6361 	inc	hl
   1697 5E                 6362 	ld	e,(hl)
   1698 16 00              6363 	ld	d,#0x00
   169A 6B                 6364 	ld	l,e
   169B 62                 6365 	ld	h,d
   169C 29                 6366 	add	hl,hl
   169D 19                 6367 	add	hl,de
   169E 29                 6368 	add	hl,hl
   169F 29                 6369 	add	hl,hl
   16A0 29                 6370 	add	hl,hl
   16A1 45                 6371 	ld	b,l
   16A2 4C                 6372 	ld	c,h
                           6373 ;	genPlus
                           6374 ;	genPlusIncr
                           6375 ;	Can't optimise plus by inc, falling back to the normal way
   16A3 78                 6376 	ld	a,b
   16A4 C6 48              6377 	add	a,#0x48
   16A6 47                 6378 	ld	b,a
   16A7 79                 6379 	ld	a,c
   16A8 CE 00              6380 	adc	a,#0x00
   16AA 4F                 6381 	ld	c,a
                           6382 ;	genCast
                           6383 ; Removed redundent load
                           6384 ;	r2tune.c 594
                           6385 ;	genIpush
                           6386 ; _saveRegsForCall: sendSetSize: 0 deInUse: 0 bcInUse: 0 deSending: 0
   16AB 78                 6387 	ld	a,b
   16AC F5                 6388 	push	af
   16AD 33                 6389 	inc	sp
                           6390 ;	genIpush
                           6391 ;	AOP_STK for _main_pos_x_1_1
   16AE F8 38              6392 	lda	hl,56(sp)
   16B0 7E                 6393 	ld	a,(hl)
   16B1 F5                 6394 	push	af
   16B2 33                 6395 	inc	sp
                           6396 ;	genCall
   16B3 CD F2 14           6397 	call	_move_cursor
   16B6 E8 02              6398 	lda	sp,2(sp)
                           6399 ;	genLabel
   16B8                    6400 00102$:
                           6401 ;	r2tune.c 597
                           6402 ;	genAnd
                           6403 ;	AOP_STK for _main_key2_1_1
   16B8 F8 3A              6404 	lda	hl,58(sp)
   16BA 7E                 6405 	ld	a,(hl)
   16BB E6 10              6406 	and	a,#0x10
   16BD 20 03              6407 	jr	nz,00242$
   16BF C3 E9 17           6408 	jp	00164$
   16C2                    6409 00242$:
                           6410 ;	r2tune.c 598
                           6411 ;	genAnd
                           6412 ;	AOP_STK for _main_key1_1_1
   16C2 F8 3B              6413 	lda	hl,59(sp)
   16C4 7E                 6414 	ld	a,(hl)
   16C5 E6 10              6415 	and	a,#0x10
   16C7 20 03              6416 	jr	nz,00243$
   16C9 C3 8A 17           6417 	jp	00124$
   16CC                    6418 00243$:
                           6419 ;	r2tune.c 600
                           6420 ;	genCmpGt
                           6421 ;	AOP_STK for _main_i_1_1
   16CC 3E 03              6422 	ld	a,#0x03
   16CE F8 39              6423 	lda	hl,57(sp)
   16D0 96                 6424 	sub	a,(hl)
   16D1 DA 10 17           6425 	jp	c,00104$
                           6426 ;	genCmpGt
                           6427 ;	AOP_STK for _main_j_1_1
   16D4 3E 03              6428 	ld	a,#0x03
   16D6 2B                 6429 	dec	hl
   16D7 96                 6430 	sub	a,(hl)
   16D8 DA 10 17           6431 	jp	c,00104$
                           6432 ;	r2tune.c 602
                           6433 ;	genAssign
   16DB 01 13 FF           6434 	ld	bc,#0xFF13
                           6435 ;	genPlus
                           6436 ;	AOP_STK for _main_i_1_1
                           6437 ;	AOP_STK for _main_sloc0_1_0
                           6438 ;	Can't optimise plus by inc, falling back to the normal way
   16DE 11 FD 06           6439 	ld	de,#_row
   16E1 23                 6440 	inc	hl
   16E2 6E                 6441 	ld	l,(hl)
   16E3 26 00              6442 	ld	h,#0x00
   16E5 19                 6443 	add	hl,de
   16E6 7D                 6444 	ld	a,l
   16E7 54                 6445 	ld	d,h
   16E8 F8 07              6446 	lda	hl,7(sp)
                           6447 ;	genPointerGet
                           6448 ;	AOP_STK for _main_sloc0_1_0
   16EA 22                 6449 	ld	(hl+),a
   16EB 72                 6450 	ld	(hl),d
   16EC 5F                 6451 	ld	e,a
   16ED 1A                 6452 	ld	a,(de)
                           6453 ;	genAssign (pointer)
   16EE 02                 6454 	ld	(bc),a
                           6455 ;	r2tune.c 603
                           6456 ;	genAssign
   16EF 01 18 FF           6457 	ld	bc,#0xFF18
                           6458 ;	genPlus
                           6459 ;	AOP_STK for _main_j_1_1
                           6460 ;	AOP_STK for _main_sloc0_1_0
                           6461 ;	Can't optimise plus by inc, falling back to the normal way
   16F2 11 01 07           6462 	ld	de,#_col
   16F5 F8 38              6463 	lda	hl,56(sp)
   16F7 6E                 6464 	ld	l,(hl)
   16F8 26 00              6465 	ld	h,#0x00
   16FA 19                 6466 	add	hl,de
   16FB 7D                 6467 	ld	a,l
   16FC 54                 6468 	ld	d,h
   16FD F8 07              6469 	lda	hl,7(sp)
                           6470 ;	genPointerGet
                           6471 ;	AOP_STK for _main_sloc0_1_0
   16FF 22                 6472 	ld	(hl+),a
   1700 72                 6473 	ld	(hl),d
   1701 5F                 6474 	ld	e,a
   1702 1A                 6475 	ld	a,(de)
                           6476 ;	genAssign (pointer)
   1703 02                 6477 	ld	(bc),a
                           6478 ;	r2tune.c 604
                           6479 ;	genAssign
   1704 01 19 FF           6480 	ld	bc,#0xFF19
                           6481 ;	genAssign (pointer)
   1707 3E 87              6482 	ld	a,#0x87
   1709 02                 6483 	ld	(bc),a
                           6484 ;	r2tune.c 607
                           6485 ;	genAssign
   170A 01 25 FF           6486 	ld	bc,#0xFF25
                           6487 ;	genAssign (pointer)
   170D 3E 33              6488 	ld	a,#0x33
   170F 02                 6489 	ld	(bc),a
                           6490 ;	genLabel
   1710                    6491 00104$:
                           6492 ;	r2tune.c 611
                           6493 ;	genCmpEq
                           6494 ;	AOP_STK for _main_i_1_1
                           6495 ; genCmpEq: left 1, right 1, result 1
   1710 F8 39              6496 	lda	hl,57(sp)
   1712 7E                 6497 	ld	a,(hl)
   1713 FE 05              6498 	cp	a,#0x05
   1715 C2 1C 17           6499 	jp	nz,00244$
   1718 3E 01              6500 	ld	a,#0x01
   171A 18 01              6501 	jr	00245$
   171C                    6502 00244$:
   171C AF                 6503 	xor	a,a
   171D                    6504 00245$:
   171D 4F                 6505 	ld	c,a
                           6506 ;	genIfx
   171E AF                 6507 	xor	a,a
   171F B1                 6508 	or	a,c
   1720 CA 46 17           6509 	jp	z,00107$
                           6510 ;	genCmpEq
                           6511 ;	AOP_STK for _main_j_1_1
                           6512 ; genCmpEq: left 1, right 1, result 0
   1723 F8 38              6513 	lda	hl,56(sp)
   1725 7E                 6514 	ld	a,(hl)
   1726 B7                 6515 	or	a,a
   1727 C2 46 17           6516 	jp	nz,00107$
   172A 18 03              6517 	jr	00247$
   172C                    6518 00246$:
   172C C3 46 17           6519 	jp	00107$
   172F                    6520 00247$:
                           6521 ;	genIfx
                           6522 ;	AOP_STK for _main_non_flick_1_1
   172F AF                 6523 	xor	a,a
   1730 F8 35              6524 	lda	hl,53(sp)
   1732 B6                 6525 	or	a,(hl)
   1733 C2 46 17           6526 	jp	nz,00107$
                           6527 ;	r2tune.c 612
                           6528 ;	genIpush
                           6529 ; _saveRegsForCall: sendSetSize: 0 deInUse: 0 bcInUse: 1 deSending: 0
   1736 C5                 6530 	push	bc
   1737 21 07 1B           6531 	ld	hl,#__str_5
   173A E5                 6532 	push	hl
                           6533 ;	genCall
   173B CD 7E 0F           6534 	call	_disp
   173E E8 02              6535 	lda	sp,2(sp)
   1740 E1                 6536 	pop	hl
   1741 4D                 6537 	ld	c,l
                           6538 ;	r2tune.c 613
                           6539 ;	genAssign
                           6540 ;	AOP_STK for _main_non_flick_1_1
   1742 F8 35              6541 	lda	hl,53(sp)
   1744 36 01              6542 	ld	(hl),#0x01
                           6543 ;	genLabel
   1746                    6544 00107$:
                           6545 ;	r2tune.c 619
                           6546 ;	genIfx
   1746 AF                 6547 	xor	a,a
   1747 B1                 6548 	or	a,c
   1748 CA 5D 1A           6549 	jp	z,00165$
                           6550 ;	genCmpEq
                           6551 ;	AOP_STK for _main_j_1_1
                           6552 ; genCmpEq: left 1, right 1, result 0
   174B F8 38              6553 	lda	hl,56(sp)
   174D 7E                 6554 	ld	a,(hl)
   174E FE 01              6555 	cp	a,#0x01
   1750 CA 60 17           6556 	jp	z,00114$
   1753                    6557 00248$:
                           6558 ;	genCmpEq
                           6559 ;	AOP_STK for _main_j_1_1
                           6560 ; genCmpEq: left 1, right 1, result 0
   1753 F8 38              6561 	lda	hl,56(sp)
   1755 7E                 6562 	ld	a,(hl)
   1756 FE 02              6563 	cp	a,#0x02
   1758 C2 5D 1A           6564 	jp	nz,00165$
   175B 18 03              6565 	jr	00250$
   175D                    6566 00249$:
   175D C3 5D 1A           6567 	jp	00165$
   1760                    6568 00250$:
                           6569 ;	genLabel
   1760                    6570 00114$:
                           6571 ;	genIfx
                           6572 ;	AOP_STK for _main_non_flick_1_1
   1760 AF                 6573 	xor	a,a
   1761 F8 35              6574 	lda	hl,53(sp)
   1763 B6                 6575 	or	a,(hl)
   1764 C2 5D 1A           6576 	jp	nz,00165$
                           6577 ;	r2tune.c 620
                           6578 ;	genAddrOf
   1767 F8 09              6579 	lda	hl,9(sp)
   1769 4D                 6580 	ld	c,l
   176A 44                 6581 	ld	b,h
                           6582 ;	genIpush
                           6583 ; _saveRegsForCall: sendSetSize: 0 deInUse: 0 bcInUse: 1 deSending: 0
   176B C5                 6584 	push	bc
                           6585 ;	AOP_STK for _main_on_time_1_1
   176C F8 35              6586 	lda	hl,53(sp)
   176E 2A                 6587 	ld	a,(hl+)
   176F 66                 6588 	ld	h,(hl)
   1770 6F                 6589 	ld	l,a
   1771 E5                 6590 	push	hl
                           6591 ;	genIpush
   1772 21 13 1B           6592 	ld	hl,#__str_6
   1775 E5                 6593 	push	hl
                           6594 ;	genIpush
   1776 C5                 6595 	push	bc
                           6596 ;	genCall
   1777 CD 00 00           6597 	call	_sprintf
   177A E8 06              6598 	lda	sp,6(sp)
   177C C1                 6599 	pop	bc
                           6600 ;	r2tune.c 621
                           6601 ;	genIpush
                           6602 ; _saveRegsForCall: sendSetSize: 0 deInUse: 0 bcInUse: 0 deSending: 0
   177D C5                 6603 	push	bc
                           6604 ;	genCall
   177E CD 7E 0F           6605 	call	_disp
   1781 E8 02              6606 	lda	sp,2(sp)
                           6607 ;	r2tune.c 622
                           6608 ;	genAssign
                           6609 ;	AOP_STK for _main_non_flick_1_1
   1783 F8 35              6610 	lda	hl,53(sp)
   1785 36 01              6611 	ld	(hl),#0x01
                           6612 ;	genGoto
   1787 C3 5D 1A           6613 	jp	00165$
                           6614 ;	genLabel
   178A                    6615 00124$:
                           6616 ;	r2tune.c 627
                           6617 ;	genAssign
   178A 01 25 FF           6618 	ld	bc,#0xFF25
                           6619 ;	genAssign (pointer)
   178D 3E 00              6620 	ld	a,#0x00
   178F 02                 6621 	ld	(bc),a
                           6622 ;	r2tune.c 629
                           6623 ;	genIpush
                           6624 ; _saveRegsForCall: sendSetSize: 0 deInUse: 0 bcInUse: 0 deSending: 0
                           6625 ;	AOP_STK for _main_j_1_1
   1790 F8 38              6626 	lda	hl,56(sp)
   1792 7E                 6627 	ld	a,(hl)
   1793 F5                 6628 	push	af
   1794 33                 6629 	inc	sp
                           6630 ;	genIpush
                           6631 ;	AOP_STK for _main_i_1_1
   1795 23                 6632 	inc	hl
   1796 7E                 6633 	ld	a,(hl)
   1797 F5                 6634 	push	af
   1798 33                 6635 	inc	sp
                           6636 ;	genCall
   1799 CD 3B 11           6637 	call	_break_button
   179C E8 02              6638 	lda	sp,2(sp)
                           6639 ;	r2tune.c 635
                           6640 ;	genCmpEq
                           6641 ;	AOP_STK for _main_i_1_1
                           6642 ; genCmpEq: left 1, right 1, result 0
   179E F8 39              6643 	lda	hl,57(sp)
   17A0 7E                 6644 	ld	a,(hl)
   17A1 FE 05              6645 	cp	a,#0x05
   17A3 C2 5D 1A           6646 	jp	nz,00165$
   17A6 18 03              6647 	jr	00252$
   17A8                    6648 00251$:
   17A8 C3 5D 1A           6649 	jp	00165$
   17AB                    6650 00252$:
                           6651 ;	genCmpEq
                           6652 ;	AOP_STK for _main_j_1_1
                           6653 ; genCmpEq: left 1, right 1, result 0
   17AB F8 38              6654 	lda	hl,56(sp)
   17AD 7E                 6655 	ld	a,(hl)
   17AE B7                 6656 	or	a,a
   17AF CA C7 17           6657 	jp	z,00118$
   17B2                    6658 00253$:
                           6659 ;	genCmpEq
                           6660 ;	AOP_STK for _main_j_1_1
                           6661 ; genCmpEq: left 1, right 1, result 0
   17B2 F8 38              6662 	lda	hl,56(sp)
   17B4 7E                 6663 	ld	a,(hl)
   17B5 FE 01              6664 	cp	a,#0x01
   17B7 CA C7 17           6665 	jp	z,00118$
   17BA                    6666 00254$:
                           6667 ;	genCmpEq
                           6668 ;	AOP_STK for _main_j_1_1
                           6669 ; genCmpEq: left 1, right 1, result 0
   17BA F8 38              6670 	lda	hl,56(sp)
   17BC 7E                 6671 	ld	a,(hl)
   17BD FE 02              6672 	cp	a,#0x02
   17BF C2 5D 1A           6673 	jp	nz,00165$
   17C2 18 03              6674 	jr	00256$
   17C4                    6675 00255$:
   17C4 C3 5D 1A           6676 	jp	00165$
   17C7                    6677 00256$:
                           6678 ;	genLabel
   17C7                    6679 00118$:
                           6680 ;	r2tune.c 636
                           6681 ;	genAssign
                           6682 ;	AOP_STK for _main_non_flick_1_1
   17C7 F8 35              6683 	lda	hl,53(sp)
   17C9 36 00              6684 	ld	(hl),#0x00
                           6685 ;	r2tune.c 637
                           6686 ;	genCmpEq
                           6687 ;	AOP_STK for _main_ch_pos_1_1
                           6688 ; genCmpEq: left 1, right 1, result 0
   17CB 23                 6689 	inc	hl
   17CC 7E                 6690 	ld	a,(hl)
   17CD B7                 6691 	or	a,a
   17CE C2 DC 17           6692 	jp	nz,00116$
   17D1 18 03              6693 	jr	00258$
   17D3                    6694 00257$:
   17D3 C3 DC 17           6695 	jp	00116$
   17D6                    6696 00258$:
                           6697 ;	r2tune.c 638
                           6698 ;	genCall
                           6699 ; _saveRegsForCall: sendSetSize: 0 deInUse: 0 bcInUse: 0 deSending: 0
   17D6 CD 5F 0F           6700 	call	_clr_disp
                           6701 ;	genGoto
   17D9 C3 5D 1A           6702 	jp	00165$
                           6703 ;	genLabel
   17DC                    6704 00116$:
                           6705 ;	r2tune.c 640
                           6706 ;	genAddrOf
   17DC F8 13              6707 	lda	hl,19(sp)
   17DE 4D                 6708 	ld	c,l
   17DF 44                 6709 	ld	b,h
                           6710 ;	genIpush
                           6711 ; _saveRegsForCall: sendSetSize: 0 deInUse: 0 bcInUse: 0 deSending: 0
   17E0 C5                 6712 	push	bc
                           6713 ;	genCall
   17E1 CD 7E 0F           6714 	call	_disp
   17E4 E8 02              6715 	lda	sp,2(sp)
                           6716 ;	genGoto
   17E6 C3 5D 1A           6717 	jp	00165$
                           6718 ;	genLabel
   17E9                    6719 00164$:
                           6720 ;	r2tune.c 645
                           6721 ;	genAnd
                           6722 ;	AOP_STK for _main_key1_1_1
   17E9 F8 3B              6723 	lda	hl,59(sp)
   17EB 7E                 6724 	ld	a,(hl)
   17EC E6 10              6725 	and	a,#0x10
   17EE 20 03              6726 	jr	nz,00259$
   17F0 C3 5D 1A           6727 	jp	00165$
   17F3                    6728 00259$:
                           6729 ;	r2tune.c 647
                           6730 ;	genIpush
                           6731 ; _saveRegsForCall: sendSetSize: 0 deInUse: 0 bcInUse: 0 deSending: 0
                           6732 ;	AOP_STK for _main_j_1_1
   17F3 F8 38              6733 	lda	hl,56(sp)
   17F5 7E                 6734 	ld	a,(hl)
   17F6 F5                 6735 	push	af
   17F7 33                 6736 	inc	sp
                           6737 ;	genIpush
                           6738 ;	AOP_STK for _main_i_1_1
   17F8 23                 6739 	inc	hl
   17F9 7E                 6740 	ld	a,(hl)
   17FA F5                 6741 	push	af
   17FB 33                 6742 	inc	sp
                           6743 ;	genCall
   17FC CD 38 10           6744 	call	_press_button
   17FF E8 02              6745 	lda	sp,2(sp)
                           6746 ;	r2tune.c 650
                           6747 ;	genCmpGt
                           6748 ;	AOP_STK for _main_i_1_1
   1801 3E 03              6749 	ld	a,#0x03
   1803 F8 39              6750 	lda	hl,57(sp)
   1805 96                 6751 	sub	a,(hl)
   1806 DA 78 18           6752 	jp	c,00129$
                           6753 ;	genCmpGt
                           6754 ;	AOP_STK for _main_j_1_1
   1809 3E 03              6755 	ld	a,#0x03
   180B 2B                 6756 	dec	hl
   180C 96                 6757 	sub	a,(hl)
   180D DA 78 18           6758 	jp	c,00129$
                           6759 ;	r2tune.c 652
                           6760 ;	genCmpLt
                           6761 ;	AOP_STK for _main_ch_pos_1_1
   1810 2B                 6762 	dec	hl
   1811 2B                 6763 	dec	hl
   1812 7E                 6764 	ld	a,(hl)
   1813 FE 1D              6765 	cp	#0x1D
   1815 D2 78 18           6766 	jp	nc,00129$
                           6767 ;	r2tune.c 653
                           6768 ;	genAddrOf
   1818 F8 13              6769 	lda	hl,19(sp)
   181A 4D                 6770 	ld	c,l
   181B 44                 6771 	ld	b,h
                           6772 ;	genPlus
                           6773 ;	AOP_STK for _main_ch_pos_1_1
                           6774 ;	AOP_STK for _main_sloc0_1_0
                           6775 ;	Can't optimise plus by inc, falling back to the normal way
   181C F8 36              6776 	lda	hl,54(sp)
   181E 6E                 6777 	ld	l,(hl)
   181F 26 00              6778 	ld	h,#0x00
   1821 09                 6779 	add	hl,bc
   1822 7D                 6780 	ld	a,l
   1823 54                 6781 	ld	d,h
   1824 F8 07              6782 	lda	hl,7(sp)
   1826 22                 6783 	ld	(hl+),a
   1827 72                 6784 	ld	(hl),d
                           6785 ;	genMult
                           6786 ;	AOP_STK for _main_j_1_1
                           6787 ;	AOP_STK for _main_sloc2_1_0
   1828 F8 38              6788 	lda	hl,56(sp)
   182A 5E                 6789 	ld	e,(hl)
   182B 16 00              6790 	ld	d,#0x00
   182D 6B                 6791 	ld	l,e
   182E 62                 6792 	ld	h,d
   182F 29                 6793 	add	hl,hl
   1830 19                 6794 	add	hl,de
   1831 29                 6795 	add	hl,hl
   1832 7D                 6796 	ld	a,l
   1833 54                 6797 	ld	d,h
   1834 F8 04              6798 	lda	hl,4(sp)
   1836 22                 6799 	ld	(hl+),a
   1837 72                 6800 	ld	(hl),d
                           6801 ;	genPlus
                           6802 ;	AOP_STK for _main_sloc2_1_0
                           6803 ;	AOP_STK for _main_sloc3_1_0
                           6804 ;	Can't optimise plus by inc, falling back to the normal way
   1838 11 C7 08           6805 	ld	de,#_pad
   183B 2B                 6806 	dec	hl
   183C 2A                 6807 	ld	a,(hl+)
   183D 66                 6808 	ld	h,(hl)
   183E 6F                 6809 	ld	l,a
   183F 19                 6810 	add	hl,de
   1840 7D                 6811 	ld	a,l
   1841 54                 6812 	ld	d,h
   1842 F8 02              6813 	lda	hl,2(sp)
   1844 22                 6814 	ld	(hl+),a
   1845 72                 6815 	ld	(hl),d
                           6816 ;	genPlus
                           6817 ;	AOP_STK for _main_sloc3_1_0
                           6818 ;	AOP_STK for _main_i_1_1
                           6819 ;	AOP_STK for _main_sloc2_1_0
                           6820 ;	Can't optimise plus by inc, falling back to the normal way
   1846 2B                 6821 	dec	hl
   1847 5E                 6822 	ld	e,(hl)
   1848 23                 6823 	inc	hl
   1849 56                 6824 	ld	d,(hl)
   184A F8 39              6825 	lda	hl,57(sp)
   184C 6E                 6826 	ld	l,(hl)
   184D 26 00              6827 	ld	h,#0x00
   184F 19                 6828 	add	hl,de
   1850 7D                 6829 	ld	a,l
   1851 54                 6830 	ld	d,h
   1852 F8 04              6831 	lda	hl,4(sp)
                           6832 ;	genPointerGet
                           6833 ;	AOP_STK for _main_sloc2_1_0
   1854 22                 6834 	ld	(hl+),a
   1855 72                 6835 	ld	(hl),d
   1856 5F                 6836 	ld	e,a
   1857 1A                 6837 	ld	a,(de)
                           6838 ;	genAssign (pointer)
                           6839 ;	AOP_STK for _main_sloc0_1_0
   1858 23                 6840 	inc	hl
   1859 23                 6841 	inc	hl
   185A 5E                 6842 	ld	e,(hl)
   185B 23                 6843 	inc	hl
   185C 56                 6844 	ld	d,(hl)
   185D 12                 6845 	ld	(de),a
                           6846 ;	r2tune.c 654
                           6847 ;	genPlus
                           6848 ;	AOP_STK for _main_ch_pos_1_1
                           6849 ;	genPlusIncr
   185E F8 36              6850 	lda	hl,54(sp)
   1860 34                 6851 	inc	(hl)
                           6852 ;	r2tune.c 655
                           6853 ;	genPlus
                           6854 ;	AOP_STK for _main_ch_pos_1_1
                           6855 ;	AOP_STK for _main_sloc3_1_0
                           6856 ;	Can't optimise plus by inc, falling back to the normal way
   1861 6E                 6857 	ld	l,(hl)
   1862 26 00              6858 	ld	h,#0x00
   1864 09                 6859 	add	hl,bc
   1865 7D                 6860 	ld	a,l
   1866 54                 6861 	ld	d,h
   1867 F8 02              6862 	lda	hl,2(sp)
   1869 22                 6863 	ld	(hl+),a
   186A 72                 6864 	ld	(hl),d
                           6865 ;	genAssign (pointer)
                           6866 ;	AOP_STK for _main_sloc3_1_0
   186B 2B                 6867 	dec	hl
   186C 5E                 6868 	ld	e,(hl)
   186D 23                 6869 	inc	hl
   186E 56                 6870 	ld	d,(hl)
   186F 3E 00              6871 	ld	a,#0x00
   1871 12                 6872 	ld	(de),a
                           6873 ;	r2tune.c 656
                           6874 ;	genIpush
                           6875 ; _saveRegsForCall: sendSetSize: 0 deInUse: 0 bcInUse: 0 deSending: 0
   1872 C5                 6876 	push	bc
                           6877 ;	genCall
   1873 CD 7E 0F           6878 	call	_disp
   1876 E8 02              6879 	lda	sp,2(sp)
                           6880 ;	genLabel
   1878                    6881 00129$:
                           6882 ;	r2tune.c 661
                           6883 ;	genCmpEq
                           6884 ;	AOP_STK for _main_i_1_1
                           6885 ; genCmpEq: left 1, right 1, result 1
   1878 F8 39              6886 	lda	hl,57(sp)
   187A 7E                 6887 	ld	a,(hl)
   187B FE 04              6888 	cp	a,#0x04
   187D C2 84 18           6889 	jp	nz,00260$
   1880 3E 01              6890 	ld	a,#0x01
   1882 18 01              6891 	jr	00261$
   1884                    6892 00260$:
   1884 AF                 6893 	xor	a,a
   1885                    6894 00261$:
   1885 4F                 6895 	ld	c,a
                           6896 ;	genIfx
   1886 AF                 6897 	xor	a,a
   1887 B1                 6898 	or	a,c
   1888 CA 16 19           6899 	jp	z,00134$
                           6900 ;	genCmpEq
                           6901 ;	AOP_STK for _main_j_1_1
                           6902 ; genCmpEq: left 1, right 1, result 0
   188B F8 38              6903 	lda	hl,56(sp)
   188D 7E                 6904 	ld	a,(hl)
   188E FE 02              6905 	cp	a,#0x02
   1890 C2 16 19           6906 	jp	nz,00134$
   1893 18 03              6907 	jr	00263$
   1895                    6908 00262$:
   1895 C3 16 19           6909 	jp	00134$
   1898                    6910 00263$:
                           6911 ;	r2tune.c 663
                           6912 ;	genCmpLt
                           6913 ;	AOP_STK for _main_ch_pos_1_1
   1898 F8 36              6914 	lda	hl,54(sp)
   189A 7E                 6915 	ld	a,(hl)
   189B FE 1D              6916 	cp	#0x1D
   189D D2 16 19           6917 	jp	nc,00134$
                           6918 ;	r2tune.c 664
                           6919 ;	genAddrOf
                           6920 ;	AOP_STK for _main_sloc3_1_0
   18A0 F8 13              6921 	lda	hl,19(sp)
   18A2 7D                 6922 	ld	a,l
   18A3 54                 6923 	ld	d,h
   18A4 F8 02              6924 	lda	hl,2(sp)
   18A6 22                 6925 	ld	(hl+),a
   18A7 72                 6926 	ld	(hl),d
                           6927 ;	genPlus
                           6928 ;	AOP_STK for _main_sloc3_1_0
                           6929 ;	AOP_STK for _main_ch_pos_1_1
                           6930 ;	AOP_STK for _main_sloc2_1_0
                           6931 ;	Can't optimise plus by inc, falling back to the normal way
   18A8 2B                 6932 	dec	hl
   18A9 5E                 6933 	ld	e,(hl)
   18AA 23                 6934 	inc	hl
   18AB 56                 6935 	ld	d,(hl)
   18AC F8 36              6936 	lda	hl,54(sp)
   18AE 6E                 6937 	ld	l,(hl)
   18AF 26 00              6938 	ld	h,#0x00
   18B1 19                 6939 	add	hl,de
   18B2 7D                 6940 	ld	a,l
   18B3 54                 6941 	ld	d,h
   18B4 F8 04              6942 	lda	hl,4(sp)
   18B6 22                 6943 	ld	(hl+),a
   18B7 72                 6944 	ld	(hl),d
                           6945 ;	genMult
                           6946 ;	AOP_STK for _main_j_1_1
                           6947 ;	AOP_STK for _main_sloc0_1_0
   18B8 F8 38              6948 	lda	hl,56(sp)
   18BA 5E                 6949 	ld	e,(hl)
   18BB 16 00              6950 	ld	d,#0x00
   18BD 6B                 6951 	ld	l,e
   18BE 62                 6952 	ld	h,d
   18BF 29                 6953 	add	hl,hl
   18C0 19                 6954 	add	hl,de
   18C1 29                 6955 	add	hl,hl
   18C2 7D                 6956 	ld	a,l
   18C3 54                 6957 	ld	d,h
   18C4 F8 07              6958 	lda	hl,7(sp)
   18C6 22                 6959 	ld	(hl+),a
   18C7 72                 6960 	ld	(hl),d
                           6961 ;	genPlus
                           6962 ;	AOP_STK for _main_sloc0_1_0
                           6963 ;	AOP_STK for _main_sloc4_1_0
                           6964 ;	Can't optimise plus by inc, falling back to the normal way
   18C8 11 C7 08           6965 	ld	de,#_pad
   18CB 2B                 6966 	dec	hl
   18CC 2A                 6967 	ld	a,(hl+)
   18CD 66                 6968 	ld	h,(hl)
   18CE 6F                 6969 	ld	l,a
   18CF 19                 6970 	add	hl,de
   18D0 7D                 6971 	ld	a,l
   18D1 54                 6972 	ld	d,h
   18D2 F8 00              6973 	lda	hl,0(sp)
   18D4 22                 6974 	ld	(hl+),a
   18D5 72                 6975 	ld	(hl),d
                           6976 ;	genPlus
                           6977 ;	AOP_STK for _main_sloc4_1_0
                           6978 ;	AOP_STK for _main_i_1_1
                           6979 ;	AOP_STK for _main_sloc0_1_0
                           6980 ;	Can't optimise plus by inc, falling back to the normal way
   18D6 2B                 6981 	dec	hl
   18D7 5E                 6982 	ld	e,(hl)
   18D8 23                 6983 	inc	hl
   18D9 56                 6984 	ld	d,(hl)
   18DA F8 39              6985 	lda	hl,57(sp)
   18DC 6E                 6986 	ld	l,(hl)
   18DD 26 00              6987 	ld	h,#0x00
   18DF 19                 6988 	add	hl,de
   18E0 7D                 6989 	ld	a,l
   18E1 54                 6990 	ld	d,h
   18E2 F8 07              6991 	lda	hl,7(sp)
                           6992 ;	genPointerGet
                           6993 ;	AOP_STK for _main_sloc0_1_0
   18E4 22                 6994 	ld	(hl+),a
   18E5 72                 6995 	ld	(hl),d
   18E6 5F                 6996 	ld	e,a
   18E7 1A                 6997 	ld	a,(de)
                           6998 ;	genAssign (pointer)
                           6999 ;	AOP_STK for _main_sloc2_1_0
   18E8 F8 04              7000 	lda	hl,4(sp)
   18EA 5E                 7001 	ld	e,(hl)
   18EB 23                 7002 	inc	hl
   18EC 56                 7003 	ld	d,(hl)
   18ED 12                 7004 	ld	(de),a
                           7005 ;	r2tune.c 665
                           7006 ;	genPlus
                           7007 ;	AOP_STK for _main_ch_pos_1_1
                           7008 ;	genPlusIncr
   18EE F8 36              7009 	lda	hl,54(sp)
   18F0 34                 7010 	inc	(hl)
                           7011 ;	r2tune.c 666
                           7012 ;	genPlus
                           7013 ;	AOP_STK for _main_sloc3_1_0
                           7014 ;	AOP_STK for _main_ch_pos_1_1
                           7015 ;	AOP_STK for _main_sloc4_1_0
                           7016 ;	Can't optimise plus by inc, falling back to the normal way
   18F1 F8 02              7017 	lda	hl,2(sp)
   18F3 5E                 7018 	ld	e,(hl)
   18F4 23                 7019 	inc	hl
   18F5 56                 7020 	ld	d,(hl)
   18F6 F8 36              7021 	lda	hl,54(sp)
   18F8 6E                 7022 	ld	l,(hl)
   18F9 26 00              7023 	ld	h,#0x00
   18FB 19                 7024 	add	hl,de
   18FC 7D                 7025 	ld	a,l
   18FD 54                 7026 	ld	d,h
   18FE F8 00              7027 	lda	hl,0(sp)
   1900 22                 7028 	ld	(hl+),a
   1901 72                 7029 	ld	(hl),d
                           7030 ;	genAssign (pointer)
                           7031 ;	AOP_STK for _main_sloc4_1_0
   1902 2B                 7032 	dec	hl
   1903 5E                 7033 	ld	e,(hl)
   1904 23                 7034 	inc	hl
   1905 56                 7035 	ld	d,(hl)
   1906 3E 00              7036 	ld	a,#0x00
   1908 12                 7037 	ld	(de),a
                           7038 ;	r2tune.c 667
                           7039 ;	genIpush
                           7040 ; _saveRegsForCall: sendSetSize: 0 deInUse: 0 bcInUse: 1 deSending: 0
   1909 C5                 7041 	push	bc
                           7042 ;	AOP_STK for _main_sloc3_1_0
   190A 23                 7043 	inc	hl
   190B 2A                 7044 	ld	a,(hl+)
   190C 66                 7045 	ld	h,(hl)
   190D 6F                 7046 	ld	l,a
   190E E5                 7047 	push	hl
                           7048 ;	genCall
   190F CD 7E 0F           7049 	call	_disp
   1912 E8 02              7050 	lda	sp,2(sp)
   1914 E1                 7051 	pop	hl
   1915 4D                 7052 	ld	c,l
                           7053 ;	genLabel
   1916                    7054 00134$:
                           7055 ;	r2tune.c 672
                           7056 ;	genIfx
   1916 AF                 7057 	xor	a,a
   1917 B1                 7058 	or	a,c
   1918 CA 4B 19           7059 	jp	z,00137$
                           7060 ;	genCmpEq
                           7061 ;	AOP_STK for _main_j_1_1
                           7062 ; genCmpEq: left 1, right 1, result 0
   191B F8 38              7063 	lda	hl,56(sp)
   191D 7E                 7064 	ld	a,(hl)
   191E B7                 7065 	or	a,a
   191F C2 4B 19           7066 	jp	nz,00137$
   1922 18 03              7067 	jr	00265$
   1924                    7068 00264$:
   1924 C3 4B 19           7069 	jp	00137$
   1927                    7070 00265$:
                           7071 ;	r2tune.c 673
                           7072 ;	genAssign
                           7073 ;	AOP_STK for _main_ch_pos_1_1
   1927 F8 36              7074 	lda	hl,54(sp)
   1929 36 00              7075 	ld	(hl),#0x00
                           7076 ;	r2tune.c 674
                           7077 ;	genAddrOf
                           7078 ;	AOP_STK for _main_sloc4_1_0
   192B F8 13              7079 	lda	hl,19(sp)
   192D 7D                 7080 	ld	a,l
   192E 54                 7081 	ld	d,h
   192F F8 00              7082 	lda	hl,0(sp)
   1931 22                 7083 	ld	(hl+),a
   1932 72                 7084 	ld	(hl),d
                           7085 ;	genIpush
                           7086 ; _saveRegsForCall: sendSetSize: 0 deInUse: 0 bcInUse: 1 deSending: 0
   1933 C5                 7087 	push	bc
   1934 21 19 1B           7088 	ld	hl,#__str_7
   1937 E5                 7089 	push	hl
                           7090 ;	genIpush
                           7091 ;	AOP_STK for _main_sloc4_1_0
   1938 F8 04              7092 	lda	hl,4(sp)
   193A 2A                 7093 	ld	a,(hl+)
   193B 66                 7094 	ld	h,(hl)
   193C 6F                 7095 	ld	l,a
   193D E5                 7096 	push	hl
                           7097 ;	genCall
   193E CD 00 00           7098 	call	_strcpy
   1941 E8 04              7099 	lda	sp,4(sp)
   1943 E1                 7100 	pop	hl
   1944 4D                 7101 	ld	c,l
                           7102 ;	r2tune.c 675
                           7103 ;	genCall
                           7104 ; _saveRegsForCall: sendSetSize: 0 deInUse: 0 bcInUse: 1 deSending: 0
   1945 C5                 7105 	push	bc
   1946 CD 5F 0F           7106 	call	_clr_disp
   1949 E1                 7107 	pop	hl
   194A 4D                 7108 	ld	c,l
                           7109 ;	genLabel
   194B                    7110 00137$:
                           7111 ;	r2tune.c 679
                           7112 ;	genIfx
   194B AF                 7113 	xor	a,a
   194C B1                 7114 	or	a,c
   194D CA A8 19           7115 	jp	z,00145$
                           7116 ;	genCmpEq
                           7117 ;	AOP_STK for _main_j_1_1
                           7118 ; genCmpEq: left 1, right 1, result 0
   1950 F8 38              7119 	lda	hl,56(sp)
   1952 7E                 7120 	ld	a,(hl)
   1953 FE 01              7121 	cp	a,#0x01
   1955 C2 A8 19           7122 	jp	nz,00145$
   1958 18 03              7123 	jr	00267$
   195A                    7124 00266$:
   195A C3 A8 19           7125 	jp	00145$
   195D                    7126 00267$:
                           7127 ;	r2tune.c 680
                           7128 ;	genCmpGt
                           7129 ;	AOP_STK for _main_ch_pos_1_1
   195D 3E 00              7130 	ld	a,#0x00
   195F F8 36              7131 	lda	hl,54(sp)
   1961 96                 7132 	sub	a,(hl)
   1962 D2 A8 19           7133 	jp	nc,00145$
                           7134 ;	r2tune.c 681
                           7135 ;	genMinus
                           7136 ;	AOP_STK for _main_ch_pos_1_1
   1965 35                 7137 	dec	(hl)
                           7138 ;	r2tune.c 682
                           7139 ;	genAddrOf
                           7140 ;	AOP_STK for _main_sloc4_1_0
   1966 F8 13              7141 	lda	hl,19(sp)
   1968 7D                 7142 	ld	a,l
   1969 54                 7143 	ld	d,h
   196A F8 00              7144 	lda	hl,0(sp)
   196C 22                 7145 	ld	(hl+),a
   196D 72                 7146 	ld	(hl),d
                           7147 ;	genPlus
                           7148 ;	AOP_STK for _main_sloc4_1_0
                           7149 ;	AOP_STK for _main_ch_pos_1_1
                           7150 ;	AOP_STK for _main_sloc3_1_0
                           7151 ;	Can't optimise plus by inc, falling back to the normal way
   196E 2B                 7152 	dec	hl
   196F 5E                 7153 	ld	e,(hl)
   1970 23                 7154 	inc	hl
   1971 56                 7155 	ld	d,(hl)
   1972 F8 36              7156 	lda	hl,54(sp)
   1974 6E                 7157 	ld	l,(hl)
   1975 26 00              7158 	ld	h,#0x00
   1977 19                 7159 	add	hl,de
   1978 7D                 7160 	ld	a,l
   1979 54                 7161 	ld	d,h
   197A F8 02              7162 	lda	hl,2(sp)
   197C 22                 7163 	ld	(hl+),a
   197D 72                 7164 	ld	(hl),d
                           7165 ;	genAssign (pointer)
                           7166 ;	AOP_STK for _main_sloc3_1_0
   197E 2B                 7167 	dec	hl
   197F 5E                 7168 	ld	e,(hl)
   1980 23                 7169 	inc	hl
   1981 56                 7170 	ld	d,(hl)
   1982 3E 00              7171 	ld	a,#0x00
   1984 12                 7172 	ld	(de),a
                           7173 ;	r2tune.c 683
                           7174 ;	genCmpEq
                           7175 ;	AOP_STK for _main_ch_pos_1_1
                           7176 ; genCmpEq: left 1, right 1, result 0
   1985 F8 36              7177 	lda	hl,54(sp)
   1987 7E                 7178 	ld	a,(hl)
   1988 B7                 7179 	or	a,a
   1989 C2 9A 19           7180 	jp	nz,00140$
   198C 18 03              7181 	jr	00269$
   198E                    7182 00268$:
   198E C3 9A 19           7183 	jp	00140$
   1991                    7184 00269$:
                           7185 ;	r2tune.c 684
                           7186 ;	genCall
                           7187 ; _saveRegsForCall: sendSetSize: 0 deInUse: 0 bcInUse: 1 deSending: 0
   1991 C5                 7188 	push	bc
   1992 CD 5F 0F           7189 	call	_clr_disp
   1995 E1                 7190 	pop	hl
   1996 4D                 7191 	ld	c,l
                           7192 ;	genGoto
   1997 C3 A8 19           7193 	jp	00145$
                           7194 ;	genLabel
   199A                    7195 00140$:
                           7196 ;	r2tune.c 686
                           7197 ;	genIpush
                           7198 ; _saveRegsForCall: sendSetSize: 0 deInUse: 0 bcInUse: 1 deSending: 0
   199A C5                 7199 	push	bc
                           7200 ;	AOP_STK for _main_sloc4_1_0
   199B F8 02              7201 	lda	hl,2(sp)
   199D 2A                 7202 	ld	a,(hl+)
   199E 66                 7203 	ld	h,(hl)
   199F 6F                 7204 	ld	l,a
   19A0 E5                 7205 	push	hl
                           7206 ;	genCall
   19A1 CD 7E 0F           7207 	call	_disp
   19A4 E8 02              7208 	lda	sp,2(sp)
   19A6 E1                 7209 	pop	hl
   19A7 4D                 7210 	ld	c,l
                           7211 ;	genLabel
   19A8                    7212 00145$:
                           7213 ;	r2tune.c 691
                           7214 ;	genCmpEq
                           7215 ;	AOP_STK for _main_i_1_1
                           7216 ; genCmpEq: left 1, right 1, result 1
   19A8 F8 39              7217 	lda	hl,57(sp)
   19AA 7E                 7218 	ld	a,(hl)
   19AB FE 05              7219 	cp	a,#0x05
   19AD C2 B4 19           7220 	jp	nz,00270$
   19B0 3E 01              7221 	ld	a,#0x01
   19B2 18 01              7222 	jr	00271$
   19B4                    7223 00270$:
   19B4 AF                 7224 	xor	a,a
   19B5                    7225 00271$:
   19B5 47                 7226 	ld	b,a
                           7227 ;	genIfx
   19B6 AF                 7228 	xor	a,a
   19B7 B0                 7229 	or	a,b
   19B8 CA F5 19           7230 	jp	z,00150$
                           7231 ;	genCmpEq
                           7232 ;	AOP_STK for _main_j_1_1
                           7233 ; genCmpEq: left 1, right 1, result 0
   19BB F8 38              7234 	lda	hl,56(sp)
   19BD 7E                 7235 	ld	a,(hl)
   19BE FE 01              7236 	cp	a,#0x01
   19C0 C2 F5 19           7237 	jp	nz,00150$
   19C3 18 03              7238 	jr	00273$
   19C5                    7239 00272$:
   19C5 C3 F5 19           7240 	jp	00150$
   19C8                    7241 00273$:
                           7242 ;	r2tune.c 692
                           7243 ;	genCmpLt
                           7244 ;	AOP_STK for _main_on_time_1_1
   19C8 F8 33              7245 	lda	hl,51(sp)
   19CA 7E                 7246 	ld	a,(hl)
   19CB D6 32              7247 	sub	a,#0x32
   19CD 23                 7248 	inc	hl
   19CE 7E                 7249 	ld	a,(hl)
   19CF DE 00              7250 	sbc	a,#0x00
   19D1 DA F5 19           7251 	jp	c,00150$
                           7252 ;	r2tune.c 693
                           7253 ;	genMinus
                           7254 ;	AOP_STK for _main_on_time_1_1
   19D4 2B                 7255 	dec	hl
   19D5 5E                 7256 	ld	e,(hl)
   19D6 23                 7257 	inc	hl
   19D7 56                 7258 	ld	d,(hl)
   19D8 21 0A 00           7259 	ld	hl,#0x000A
   19DB 7B                 7260 	ld	a,e
   19DC 95                 7261 	sub	a,l
   19DD 5F                 7262 	ld	e,a
   19DE 7A                 7263 	ld	a,d
   19DF 9C                 7264 	sbc	a,h
   19E0 F8 34              7265 	lda	hl,52(sp)
   19E2 32                 7266 	ld      (hl-),a
   19E3 73                 7267 	ld	(hl),e
                           7268 ;	r2tune.c 694
                           7269 ;	genMinus
                           7270 ;	AOP_STK for _main_off_time_1_1
   19E4 2B                 7271 	dec	hl
   19E5 2B                 7272 	dec	hl
   19E6 5E                 7273 	ld	e,(hl)
   19E7 23                 7274 	inc	hl
   19E8 56                 7275 	ld	d,(hl)
   19E9 21 0A 00           7276 	ld	hl,#0x000A
   19EC 7B                 7277 	ld	a,e
   19ED 95                 7278 	sub	a,l
   19EE 5F                 7279 	ld	e,a
   19EF 7A                 7280 	ld	a,d
   19F0 9C                 7281 	sbc	a,h
   19F1 F8 32              7282 	lda	hl,50(sp)
   19F3 32                 7283 	ld      (hl-),a
   19F4 73                 7284 	ld	(hl),e
                           7285 ;	genLabel
   19F5                    7286 00150$:
                           7287 ;	r2tune.c 699
                           7288 ;	genIfx
   19F5 AF                 7289 	xor	a,a
   19F6 B0                 7290 	or	a,b
   19F7 CA 30 1A           7291 	jp	z,00155$
                           7292 ;	genCmpEq
                           7293 ;	AOP_STK for _main_j_1_1
                           7294 ; genCmpEq: left 1, right 1, result 0
   19FA F8 38              7295 	lda	hl,56(sp)
   19FC 7E                 7296 	ld	a,(hl)
   19FD FE 02              7297 	cp	a,#0x02
   19FF C2 30 1A           7298 	jp	nz,00155$
   1A02 18 03              7299 	jr	00275$
   1A04                    7300 00274$:
   1A04 C3 30 1A           7301 	jp	00155$
   1A07                    7302 00275$:
                           7303 ;	r2tune.c 700
                           7304 ;	genCmpGt
                           7305 ;	AOP_STK for _main_on_time_1_1
   1A07 3E C8              7306 	ld	a,#0xC8
   1A09 F8 33              7307 	lda	hl,51(sp)
   1A0B 96                 7308 	sub	a,(hl)
   1A0C 3E 00              7309 	ld	a,#0x00
   1A0E 23                 7310 	inc	hl
   1A0F 9E                 7311 	sbc	a,(hl)
   1A10 DA 30 1A           7312 	jp	c,00155$
                           7313 ;	r2tune.c 701
                           7314 ;	genPlus
                           7315 ;	AOP_STK for _main_on_time_1_1
                           7316 ;	genPlusIncr
                           7317 ;	Can't optimise plus by inc, falling back to the normal way
   1A13 2B                 7318 	dec	hl
   1A14 5E                 7319 	ld	e,(hl)
   1A15 23                 7320 	inc	hl
   1A16 56                 7321 	ld	d,(hl)
   1A17 21 0A 00           7322 	ld	hl,#0x000A
   1A1A 19                 7323 	add	hl,de
   1A1B 7D                 7324 	ld	a,l
   1A1C 54                 7325 	ld	d,h
   1A1D F8 33              7326 	lda	hl,51(sp)
   1A1F 22                 7327 	ld	(hl+),a
   1A20 72                 7328 	ld	(hl),d
                           7329 ;	r2tune.c 702
                           7330 ;	genPlus
                           7331 ;	AOP_STK for _main_off_time_1_1
                           7332 ;	genPlusIncr
                           7333 ;	Can't optimise plus by inc, falling back to the normal way
   1A21 F8 31              7334 	lda	hl,49(sp)
   1A23 5E                 7335 	ld	e,(hl)
   1A24 23                 7336 	inc	hl
   1A25 56                 7337 	ld	d,(hl)
   1A26 21 0A 00           7338 	ld	hl,#0x000A
   1A29 19                 7339 	add	hl,de
   1A2A 7D                 7340 	ld	a,l
   1A2B 54                 7341 	ld	d,h
   1A2C F8 31              7342 	lda	hl,49(sp)
   1A2E 22                 7343 	ld	(hl+),a
   1A2F 72                 7344 	ld	(hl),d
                           7345 ;	genLabel
   1A30                    7346 00155$:
                           7347 ;	r2tune.c 707
                           7348 ;	genIfx
   1A30 AF                 7349 	xor	a,a
   1A31 B1                 7350 	or	a,c
   1A32 C2 3A 1A           7351 	jp	nz,00160$
                           7352 ;	genIfx
   1A35 AF                 7353 	xor	a,a
   1A36 B0                 7354 	or	a,b
   1A37 CA 5D 1A           7355 	jp	z,00165$
                           7356 ;	genLabel
   1A3A                    7357 00160$:
                           7358 ;	genCmpEq
                           7359 ;	AOP_STK for _main_j_1_1
                           7360 ; genCmpEq: left 1, right 1, result 0
   1A3A F8 38              7361 	lda	hl,56(sp)
   1A3C 7E                 7362 	ld	a,(hl)
   1A3D FE 03              7363 	cp	a,#0x03
   1A3F C2 5D 1A           7364 	jp	nz,00165$
   1A42 18 03              7365 	jr	00277$
   1A44                    7366 00276$:
   1A44 C3 5D 1A           7367 	jp	00165$
   1A47                    7368 00277$:
                           7369 ;	r2tune.c 708
                           7370 ;	genAddrOf
   1A47 F8 13              7371 	lda	hl,19(sp)
   1A49 4D                 7372 	ld	c,l
   1A4A 44                 7373 	ld	b,h
                           7374 ;	genIpush
                           7375 ; _saveRegsForCall: sendSetSize: 0 deInUse: 0 bcInUse: 0 deSending: 0
   1A4B C5                 7376 	push	bc
                           7377 ;	genIpush
                           7378 ;	AOP_STK for _main_off_time_1_1
   1A4C F8 33              7379 	lda	hl,51(sp)
   1A4E 2A                 7380 	ld	a,(hl+)
   1A4F 66                 7381 	ld	h,(hl)
   1A50 6F                 7382 	ld	l,a
   1A51 E5                 7383 	push	hl
                           7384 ;	genIpush
                           7385 ;	AOP_STK for _main_on_time_1_1
   1A52 F8 37              7386 	lda	hl,55(sp)
   1A54 2A                 7387 	ld	a,(hl+)
   1A55 66                 7388 	ld	h,(hl)
   1A56 6F                 7389 	ld	l,a
   1A57 E5                 7390 	push	hl
                           7391 ;	genCall
   1A58 CD E0 09           7392 	call	_dialtone
   1A5B E8 06              7393 	lda	sp,6(sp)
                           7394 ;	genLabel
   1A5D                    7395 00165$:
                           7396 ;	r2tune.c 712
                           7397 ;	genAnd
                           7398 ;	AOP_STK for _main_key1_1_1
   1A5D F8 3B              7399 	lda	hl,59(sp)
   1A5F 7E                 7400 	ld	a,(hl)
   1A60 E6 10              7401 	and	a,#0x10
   1A62 20 03              7402 	jr	nz,00278$
   1A64 C3 6A 1A           7403 	jp	00279$
   1A67                    7404 00278$:
   1A67 C3 F0 1A           7405 	jp	00185$
   1A6A                    7406 00279$:
                           7407 ;	r2tune.c 713
                           7408 ;	genAnd
                           7409 ;	AOP_STK for _main_key1_1_1
   1A6A F8 3B              7410 	lda	hl,59(sp)
   1A6C 7E                 7411 	ld	a,(hl)
   1A6D E6 04              7412 	and	a,#0x04
   1A6F 20 03              7413 	jr	nz,00280$
   1A71 C3 8D 1A           7414 	jp	00171$
   1A74                    7415 00280$:
                           7416 ;	genAnd
                           7417 ;	AOP_STK for _main_key2_1_1
   1A74 F8 3A              7418 	lda	hl,58(sp)
   1A76 7E                 7419 	ld	a,(hl)
   1A77 E6 04              7420 	and	a,#0x04
   1A79 20 03              7421 	jr	nz,00281$
   1A7B C3 81 1A           7422 	jp	00282$
   1A7E                    7423 00281$:
   1A7E C3 8D 1A           7424 	jp	00171$
   1A81                    7425 00282$:
                           7426 ;	genCmpGt
                           7427 ;	AOP_STK for _main_j_1_1
   1A81 3E 00              7428 	ld	a,#0x00
   1A83 F8 38              7429 	lda	hl,56(sp)
   1A85 96                 7430 	sub	a,(hl)
   1A86 D2 8D 1A           7431 	jp	nc,00171$
                           7432 ;	r2tune.c 714
                           7433 ;	genMinus
                           7434 ;	AOP_STK for _main_j_1_1
   1A89 35                 7435 	dec	(hl)
                           7436 ;	genGoto
   1A8A C3 AD 1A           7437 	jp	00172$
                           7438 ;	genLabel
   1A8D                    7439 00171$:
                           7440 ;	r2tune.c 715
                           7441 ;	genAnd
                           7442 ;	AOP_STK for _main_key1_1_1
   1A8D F8 3B              7443 	lda	hl,59(sp)
   1A8F 7E                 7444 	ld	a,(hl)
   1A90 E6 08              7445 	and	a,#0x08
   1A92 20 03              7446 	jr	nz,00283$
   1A94 C3 AD 1A           7447 	jp	00172$
   1A97                    7448 00283$:
                           7449 ;	genAnd
                           7450 ;	AOP_STK for _main_key2_1_1
   1A97 F8 3A              7451 	lda	hl,58(sp)
   1A99 7E                 7452 	ld	a,(hl)
   1A9A E6 08              7453 	and	a,#0x08
   1A9C 20 03              7454 	jr	nz,00284$
   1A9E C3 A4 1A           7455 	jp	00285$
   1AA1                    7456 00284$:
   1AA1 C3 AD 1A           7457 	jp	00172$
   1AA4                    7458 00285$:
                           7459 ;	genCmpLt
                           7460 ;	AOP_STK for _main_j_1_1
   1AA4 F8 38              7461 	lda	hl,56(sp)
   1AA6 7E                 7462 	ld	a,(hl)
   1AA7 FE 03              7463 	cp	#0x03
   1AA9 D2 AD 1A           7464 	jp	nc,00172$
                           7465 ;	r2tune.c 716
                           7466 ;	genPlus
                           7467 ;	AOP_STK for _main_j_1_1
                           7468 ;	genPlusIncr
   1AAC 34                 7469 	inc	(hl)
                           7470 ;	genLabel
   1AAD                    7471 00172$:
                           7472 ;	r2tune.c 718
                           7473 ;	genAnd
                           7474 ;	AOP_STK for _main_key1_1_1
   1AAD F8 3B              7475 	lda	hl,59(sp)
   1AAF 7E                 7476 	ld	a,(hl)
   1AB0 E6 02              7477 	and	a,#0x02
   1AB2 20 03              7478 	jr	nz,00286$
   1AB4 C3 D0 1A           7479 	jp	00180$
   1AB7                    7480 00286$:
                           7481 ;	genAnd
                           7482 ;	AOP_STK for _main_key2_1_1
   1AB7 F8 3A              7483 	lda	hl,58(sp)
   1AB9 7E                 7484 	ld	a,(hl)
   1ABA E6 02              7485 	and	a,#0x02
   1ABC 20 03              7486 	jr	nz,00287$
   1ABE C3 C4 1A           7487 	jp	00288$
   1AC1                    7488 00287$:
   1AC1 C3 D0 1A           7489 	jp	00180$
   1AC4                    7490 00288$:
                           7491 ;	genCmpGt
                           7492 ;	AOP_STK for _main_i_1_1
   1AC4 3E 00              7493 	ld	a,#0x00
   1AC6 F8 39              7494 	lda	hl,57(sp)
   1AC8 96                 7495 	sub	a,(hl)
   1AC9 D2 D0 1A           7496 	jp	nc,00180$
                           7497 ;	r2tune.c 719
                           7498 ;	genMinus
                           7499 ;	AOP_STK for _main_i_1_1
   1ACC 35                 7500 	dec	(hl)
                           7501 ;	genGoto
   1ACD C3 F0 1A           7502 	jp	00185$
                           7503 ;	genLabel
   1AD0                    7504 00180$:
                           7505 ;	r2tune.c 720
                           7506 ;	genAnd
                           7507 ;	AOP_STK for _main_key1_1_1
   1AD0 F8 3B              7508 	lda	hl,59(sp)
   1AD2 7E                 7509 	ld	a,(hl)
   1AD3 E6 01              7510 	and	a,#0x01
   1AD5 20 03              7511 	jr	nz,00289$
   1AD7 C3 F0 1A           7512 	jp	00185$
   1ADA                    7513 00289$:
                           7514 ;	genAnd
                           7515 ;	AOP_STK for _main_key2_1_1
   1ADA F8 3A              7516 	lda	hl,58(sp)
   1ADC 7E                 7517 	ld	a,(hl)
   1ADD E6 01              7518 	and	a,#0x01
   1ADF 20 03              7519 	jr	nz,00290$
   1AE1 C3 E7 1A           7520 	jp	00291$
   1AE4                    7521 00290$:
   1AE4 C3 F0 1A           7522 	jp	00185$
   1AE7                    7523 00291$:
                           7524 ;	genCmpLt
                           7525 ;	AOP_STK for _main_i_1_1
   1AE7 F8 39              7526 	lda	hl,57(sp)
   1AE9 7E                 7527 	ld	a,(hl)
   1AEA FE 05              7528 	cp	#0x05
   1AEC D2 F0 1A           7529 	jp	nc,00185$
                           7530 ;	r2tune.c 721
                           7531 ;	genPlus
                           7532 ;	AOP_STK for _main_i_1_1
                           7533 ;	genPlusIncr
   1AEF 34                 7534 	inc	(hl)
                           7535 ;	genLabel
   1AF0                    7536 00185$:
                           7537 ;	r2tune.c 723
                           7538 ;	genAssign
                           7539 ;	AOP_STK for _main_key1_1_1
                           7540 ;	AOP_STK for _main_key2_1_1
   1AF0 F8 3B              7541 	lda	hl,59(sp)
   1AF2 7E                 7542 	ld	a,(hl)
   1AF3 2B                 7543 	dec	hl
   1AF4 77                 7544 	ld	(hl),a
                           7545 ;	genGoto
   1AF5 C3 65 16           7546 	jp	00187$
                           7547 ;	genLabel
   1AF8                    7548 00189$:
                           7549 ;	genEndFunction
   1AF8 E8 3C              7550 	lda	sp,60(sp)
   1AFA C9                 7551 	ret
   1AFB                    7552 ___main_end:
   1AFB                    7553 __str_4:
   1AFB 52 32 74 75 6E 65  7554 	.ascii "R2tune Game"
        20 47 61 6D 65
   1B06 00                 7555 	.db 0x00
   1B07                    7556 __str_5:
   1B07 52 32 74 75 6E 65  7557 	.ascii "R2tune Game"
        20 47 61 6D 65
   1B12 00                 7558 	.db 0x00
   1B13                    7559 __str_6:
   1B13 25 75 20 4D 53     7560 	.ascii "%u MS"
   1B18 00                 7561 	.db 0x00
   1B19                    7562 __str_7:
   1B19 00                 7563 	.db 0x00
                           7564 	.area _CODE
ASxxxx Assembler V01.75  (GameBoy Z80-like CPU), page 1.

Symbol Table

  0 ___break_button_end                123E R
  0 ___break_button_start              113B R
  0 ___check_win_end                   09C0 R
  0 ___check_win_start                 08DF R
  0 ___clr_disp_end                    0F7E R
  0 ___clr_disp_start                  0F5F R
  0 ___dialtone_end                    0C2A R
  0 ___dialtone_start                  09E0 R
  0 ___disp_end                        1038 R
  0 ___disp_lcd_end                    0F5F R
  0 ___disp_lcd_start                  0C2A R
  0 ___disp_start                      0F7E R
  0 ___init_bkg_end                    14CA R
  0 ___init_bkg_start                  1491 R
  0 ___init_cursor_end                 14F2 R
  0 ___init_cursor_start               14CA R
  0 ___init_dial_end                   003D R
  0 ___init_dial_start                 0000 R
  0 ___init_key_end                    1491 R
  0 ___init_key_start                  123E R
  0 ___logo_bkg_end                    156A R
  0 ___logo_bkg_start                  1545 R
  0 ___main_end                        1AFB R
  0 ___main_start                      15D2 R
  0 ___move_cursor_end                 1545 R
  0 ___move_cursor_start               14F2 R
  0 ___press_button_end                113B R
  0 ___press_button_start              1038 R
    __initrleblock                     **** GX
    __moduchar_rrx_s                   **** GX
  0 __str_0                            09C0 R
  0 __str_1                            156A R
  0 __str_2                            1582 R
  0 __str_3                            15B5 R
  0 __str_4                            1AFB R
  0 __str_5                            1B07 R
  0 __str_6                            1B13 R
  0 __str_7                            1B19 R
  0 _break_btn                         00CD GR
  0 _break_button                      113B GR
  0 _break_tile                        086D GR
  0 _check_win                         08DF GR
  0 _clr_disp                          0F5F GR
  0 _col                               0701 GR
  0 _cursor_data                       067D GR
    _delay                             **** GX
  0 _dialing_break                     0876 GR
  0 _dialing_press                     0891 GR
  0 _dialtone                          09E0 GR
    _disable_interrupts                **** GX
  0 _disp                              0F7E GR
  0 _disp_lcd                          0C2A GR
  1 _disp_tile                         0000 GR
  0 _dtmf_lcd                          01ED GR
  0 _dtmf_tile                         0705 GR
    _enable_interrupts                 **** GX
  0 _frame_lcd                         003D GR
    _gprintf                           **** GX
  0 _init_bkg                          1491 GR
  0 _init_cursor                       14CA GR
  0 _init_dial                         0000 GR
  0 _init_disp                         08A3 GR
  0 _init_key                          123E GR
    _joypad                            **** GX
  0 _key_num                           050D GR
  0 _logo_bkg                          1545 GR
  0 _main                              15D2 GR
  0 _move_cursor                       14F2 GR
    _move_sprite                       **** GX
  0 _pad                               08C7 GR
  0 _press_btn                         015D GR
  0 _press_button                      1038 GR
  0 _press_tile                        0888 GR
    _printf                            **** GX
  0 _row                               06FD GR
    _set_bkg_data                      **** GX
    _set_bkg_tiles                     **** GX
    _set_sprite_data                   **** GX
    _set_sprite_tile                   **** GX
    _sprintf                           **** GX
    _strcpy                            **** GX
    _wait_vbl_done                     **** GX
    _waitpad                           **** GX

ASxxxx Assembler V01.75  (GameBoy Z80-like CPU), page 2.

Area Table

   0 _CODE                              size 1B1A   flags 0
   1 _DATA                              size   1E   flags 0
   2 _OVERLAY                           size    0   flags 0
   3 _ISEG                              size    0   flags 0
   4 _BSEG                              size    0   flags 0
   5 _XSEG                              size    0   flags 0
   6 _GSINIT                            size    0   flags 0
   7 _GSFINAL                           size    0   flags 0
   8 _HOME                              size    0   flags 0
